	.file	"rising.c"
	.text
	.p2align 4
	.globl	zero
	.type	zero, @function
zero:
.LFB32:
	.cfi_startproc
	pxor	%xmm0, %xmm0
	ret
	.cfi_endproc
.LFE32:
	.size	zero, .-zero
	.p2align 4
	.type	periodic_function, @function
periodic_function:
.LFB92:
	.cfi_startproc
	pushq	%r15
	.cfi_def_cfa_offset 16
	.cfi_offset 15, -16
	movq	%r9, %r15
	pushq	%r14
	.cfi_def_cfa_offset 24
	.cfi_offset 14, -24
	movl	%ecx, %r14d
	pushq	%r13
	.cfi_def_cfa_offset 32
	.cfi_offset 13, -32
	movq	%r8, %r13
	pushq	%r12
	.cfi_def_cfa_offset 40
	.cfi_offset 12, -40
	movq	%rdi, %r12
	pushq	%rbp
	.cfi_def_cfa_offset 48
	.cfi_offset 6, -48
	movl	%edx, %ebp
	pushq	%rbx
	.cfi_def_cfa_offset 56
	.cfi_offset 3, -56
	movl	%esi, %ebx
	subq	$56, %rsp
	.cfi_def_cfa_offset 112
	movl	%esi, 20(%rsp)
	movl	%edx, 36(%rsp)
	call	*%r9
	movl	Period(%rip), %ecx
	testl	%ecx, %ecx
	je	.L4
	leal	-4(%r14), %eax
	movl	$2, 16(%rsp)
	subl	%eax, %ebx
	leal	(%rax,%rax), %ecx
	movl	%eax, 32(%rsp)
	movl	%ecx, 24(%rsp)
	movl	%ebx, 28(%rsp)
	movl	%ebx, 12(%rsp)
.L8:
	movl	12(%rsp), %eax
	movl	%eax, %ecx
	subl	20(%rsp), %ecx
	movl	%eax, %ebx
	movl	%ecx, (%rsp)
	cmpl	%eax, %r14d
	jle	.L5
	testl	%eax, %eax
	js	.L5
	movq	%r13, %rax
	movl	%ebp, %r13d
	movq	%rax, %rbp
	jmp	.L6
	.p2align 4,,10
	.p2align 3
.L47:
	cmpl	%ebx, %r14d
	jle	.L42
.L6:
	movl	%ebx, %esi
	movq	%rbp, %r8
	movl	%r14d, %ecx
	movl	%r13d, %edx
	movq	%r12, %rdi
	call	*%r15
	addl	(%rsp), %ebx
	jns	.L47
.L42:
	movq	%rbp, %rax
	movl	%r13d, %ebp
	movq	%rax, %r13
.L5:
	movl	24(%rsp), %edi
	addl	%edi, 12(%rsp)
	cmpl	$1, 16(%rsp)
	jne	.L22
	movl	Period+4(%rip), %edx
	testl	%edx, %edx
	je	.L3
	movl	36(%rsp), %eax
	subl	32(%rsp), %eax
	movl	$2, 44(%rsp)
	movl	%eax, 40(%rsp)
	movq	%r15, (%rsp)
.L17:
	movl	40(%rsp), %eax
	movl	%eax, %edi
	subl	36(%rsp), %edi
	movl	%eax, %ebp
	movl	%edi, 32(%rsp)
	cmpl	%eax, %r14d
	jle	.L10
	testl	%eax, %eax
	js	.L10
	.p2align 4,,10
	.p2align 3
.L15:
	movq	(%rsp), %rax
	movl	20(%rsp), %esi
	movq	%r13, %r8
	movl	%r14d, %ecx
	movl	%ebp, %edx
	movq	%r12, %rdi
	call	*%rax
	movl	28(%rsp), %eax
	movl	$2, 16(%rsp)
	movl	%eax, 12(%rsp)
.L14:
	movl	12(%rsp), %eax
	movl	%eax, %ebx
	movl	%eax, %r15d
	subl	20(%rsp), %ebx
	testl	%eax, %eax
	js	.L11
	cmpl	%eax, %r14d
	jle	.L11
	.p2align 4,,10
	.p2align 3
.L12:
	movl	%r15d, %esi
	movq	(%rsp), %rax
	movq	%r13, %r8
	movl	%r14d, %ecx
	movl	%ebp, %edx
	movq	%r12, %rdi
	call	*%rax
	addl	%ebx, %r15d
	js	.L11
	cmpl	%r15d, %r14d
	jg	.L12
.L11:
	movl	24(%rsp), %edx
	addl	%edx, 12(%rsp)
	cmpl	$1, 16(%rsp)
	jne	.L23
	addl	32(%rsp), %ebp
	js	.L10
	cmpl	%ebp, %r14d
	jg	.L15
.L10:
	movl	24(%rsp), %esi
	addl	%esi, 40(%rsp)
	cmpl	$1, 44(%rsp)
	je	.L3
	movl	$1, 44(%rsp)
	jmp	.L17
.L4:
	movl	Period+4(%rip), %eax
	testl	%eax, %eax
	jne	.L48
.L3:
	addq	$56, %rsp
	.cfi_remember_state
	.cfi_def_cfa_offset 56
	popq	%rbx
	.cfi_def_cfa_offset 48
	popq	%rbp
	.cfi_def_cfa_offset 40
	popq	%r12
	.cfi_def_cfa_offset 32
	popq	%r13
	.cfi_def_cfa_offset 24
	popq	%r14
	.cfi_def_cfa_offset 16
	popq	%r15
	.cfi_def_cfa_offset 8
	ret
.L22:
	.cfi_restore_state
	movl	$1, 16(%rsp)
	jmp	.L8
.L48:
	movl	36(%rsp), %ecx
	leal	-4(%r14), %eax
	movl	20(%rsp), %ebp
	movq	%r15, (%rsp)
	leal	(%rax,%rax), %esi
	movl	$2, 16(%rsp)
	subl	%eax, %ecx
	movl	%esi, 24(%rsp)
	movl	%ecx, 12(%rsp)
.L21:
	movl	12(%rsp), %eax
	movl	%eax, %ebx
	movl	%eax, %r15d
	subl	36(%rsp), %ebx
	cmpl	%eax, %r14d
	jle	.L18
	testl	%eax, %eax
	jns	.L19
	jmp	.L18
	.p2align 4,,10
	.p2align 3
.L49:
	cmpl	%r15d, %r14d
	jle	.L18
.L19:
	movl	%r15d, %edx
	movq	(%rsp), %rax
	movq	%r13, %r8
	movl	%r14d, %ecx
	movl	%ebp, %esi
	movq	%r12, %rdi
	call	*%rax
	addl	%ebx, %r15d
	jns	.L49
.L18:
	movl	24(%rsp), %edi
	addl	%edi, 12(%rsp)
	cmpl	$1, 16(%rsp)
	je	.L3
	movl	$1, 16(%rsp)
	jmp	.L21
	.p2align 4,,10
	.p2align 3
.L23:
	movl	$1, 16(%rsp)
	jmp	.L14
	.cfi_endproc
.LFE92:
	.size	periodic_function, .-periodic_function
	.p2align 4
	.type	end_event_do, @function
end_event_do:
.LFB123:
	.cfi_startproc
	pushq	%r12
	.cfi_def_cfa_offset 16
	.cfi_offset 12, -16
	pushq	%rbp
	.cfi_def_cfa_offset 24
	.cfi_offset 6, -24
	pushq	%rbx
	.cfi_def_cfa_offset 32
	.cfi_offset 3, -32
	movq	Events(%rip), %rbx
	movl	(%rbx), %edx
	testl	%edx, %edx
	jne	.L50
	movl	%edi, %r12d
	.p2align 4,,10
	.p2align 3
.L54:
	cmpl	$1234567890, 88(%rbx)
	jne	.L52
	testb	%r12b, %r12b
	jne	.L64
.L52:
	movl	112(%rbx), %eax
	addq	$112, %rbx
	testl	%eax, %eax
	je	.L54
.L50:
	popq	%rbx
	.cfi_remember_state
	.cfi_def_cfa_offset 24
	popq	%rbp
	.cfi_def_cfa_offset 16
	popq	%r12
	.cfi_def_cfa_offset 8
	ret
	.p2align 4,,10
	.p2align 3
.L64:
	.cfi_restore_state
	movq	%rbx, %rbp
	.p2align 4,,10
	.p2align 3
.L53:
	movq	%rbp, %rsi
	movsd	t(%rip), %xmm0
	movl	iter(%rip), %edi
	call	*8(%rbp)
	movq	104(%rbp), %rbp
	testq	%rbp, %rbp
	jne	.L53
	jmp	.L52
	.cfi_endproc
.LFE123:
	.size	end_event_do, .-end_event_do
	.p2align 4
	.globl	cartesian_boundary_level
	.type	cartesian_boundary_level, @function
cartesian_boundary_level:
.LFB154:
	.cfi_startproc
	pushq	%r12
	.cfi_def_cfa_offset 16
	.cfi_offset 12, -16
	movq	%rdi, %r12
	pushq	%rbp
	.cfi_def_cfa_offset 24
	.cfi_offset 6, -24
	movl	%esi, %ebp
	pushq	%rbx
	.cfi_def_cfa_offset 32
	.cfi_offset 3, -32
	movq	boundaries(%rip), %rbx
	testq	%rbx, %rbx
	je	.L65
.L66:
	movq	(%rbx), %rdi
	addq	$8, %rbx
	testq	%rdi, %rdi
	je	.L65
.L68:
	movq	8(%rdi), %rax
	testq	%rax, %rax
	je	.L66
	addq	$8, %rbx
	movl	%ebp, %edx
	movq	%r12, %rsi
	call	*%rax
	movq	-8(%rbx), %rdi
	testq	%rdi, %rdi
	jne	.L68
.L65:
	popq	%rbx
	.cfi_def_cfa_offset 24
	popq	%rbp
	.cfi_def_cfa_offset 16
	popq	%r12
	.cfi_def_cfa_offset 8
	ret
	.cfi_endproc
.LFE154:
	.size	cartesian_boundary_level, .-cartesian_boundary_level
	.p2align 4
	.globl	cartesian_boundary_face
	.type	cartesian_boundary_face, @function
cartesian_boundary_face:
.LFB155:
	.cfi_startproc
	testq	%rdi, %rdi
	je	.L76
	movslq	(%rdi), %rax
	testl	%eax, %eax
	js	.L76
	movq	_attribute(%rip), %rcx
	.p2align 4,,10
	.p2align 3
.L77:
	leaq	(%rax,%rax,4), %rdx
	addq	$4, %rdi
	leaq	(%rax,%rdx,2), %rax
	salq	$4, %rax
	movl	$2, 88(%rcx,%rax)
	movslq	(%rdi), %rax
	testl	%eax, %eax
	jns	.L77
.L76:
	testq	%rsi, %rsi
	je	.L75
	movslq	(%rsi), %rax
	testl	%eax, %eax
	js	.L75
	movq	_attribute(%rip), %rcx
	.p2align 4,,10
	.p2align 3
.L79:
	leaq	(%rax,%rax,4), %rdx
	addq	$4, %rsi
	leaq	(%rax,%rdx,2), %rax
	salq	$4, %rax
	movl	$2, 88(%rcx,%rax)
	movslq	(%rsi), %rax
	testl	%eax, %eax
	jns	.L79
.L75:
	ret
	.cfi_endproc
.LFE155:
	.size	cartesian_boundary_face, .-cartesian_boundary_face
	.p2align 4
	.type	symmetry, @function
symmetry:
.LFB156:
	.cfi_startproc
	movq	grid(%rip), %rax
	movslq	%esi, %rsi
	movslq	%edi, %rdx
	movslq	%r8d, %r8
	sarq	$32, %rdi
	movq	24(%rax), %rax
	movq	(%rax,%rsi,8), %rax
	movq	(%rax), %rax
	movq	16(%rax), %rax
	movq	(%rax,%rdx,8), %rax
	movq	(%rax,%rdi,8), %rax
	movsd	8(%rax,%r8,8), %xmm0
	ret
	.cfi_endproc
.LFE156:
	.size	symmetry, .-symmetry
	.p2align 4
	.type	antisymmetry, @function
antisymmetry:
.LFB157:
	.cfi_startproc
	movq	grid(%rip), %rax
	movslq	%esi, %rsi
	movslq	%edi, %rdx
	movslq	%r8d, %r8
	sarq	$32, %rdi
	movq	24(%rax), %rax
	movq	(%rax,%rsi,8), %rax
	movq	(%rax), %rax
	movq	16(%rax), %rax
	movq	(%rax,%rdx,8), %rax
	movq	(%rax,%rdi,8), %rax
	movsd	8(%rax,%r8,8), %xmm0
	xorpd	.LC1(%rip), %xmm0
	ret
	.cfi_endproc
.LFE157:
	.size	antisymmetry, .-antisymmetry
	.p2align 4
	.globl	cartesian_init_vertex_scalar
	.type	cartesian_init_vertex_scalar, @function
cartesian_init_vertex_scalar:
.LFB159:
	.cfi_startproc
	movslq	%edi, %rax
	pushq	%r13
	.cfi_def_cfa_offset 16
	.cfi_offset 13, -16
	leaq	(%rax,%rax,4), %rdx
	pushq	%r12
	.cfi_def_cfa_offset 24
	.cfi_offset 12, -24
	movq	%rax, %r12
	leaq	(%rax,%rdx,2), %rax
	movslq	nboundary(%rip), %rdx
	pushq	%rbp
	.cfi_def_cfa_offset 32
	.cfi_offset 6, -32
	salq	$4, %rax
	addq	_attribute(%rip), %rax
	movq	$-1, 40(%rax)
	testl	%edx, %edx
	jle	.L91
	movq	8(%rax), %rdi
	movq	(%rax), %rbp
	leaq	0(,%rdx,8), %r13
	leaq	(%rdi,%r13), %rax
	cmpq	%rax, %rbp
	jnb	.L95
	leaq	0(%rbp,%r13), %rax
	cmpq	%rax, %rdi
	jb	.L94
.L95:
	movq	%r13, %rdx
	xorl	%esi, %esi
	call	memset
	movq	%r13, %rdx
	xorl	%esi, %esi
	movq	%rbp, %rdi
	call	memset
.L91:
	movl	%r12d, %eax
	popq	%rbp
	.cfi_remember_state
	.cfi_def_cfa_offset 24
	popq	%r12
	.cfi_def_cfa_offset 16
	popq	%r13
	.cfi_def_cfa_offset 8
	ret
.L94:
	.cfi_restore_state
	xorl	%eax, %eax
	.p2align 4,,10
	.p2align 3
.L92:
	movq	$0, (%rdi,%rax,8)
	movq	$0, 0(%rbp,%rax,8)
	addq	$1, %rax
	cmpq	%rax, %rdx
	jne	.L92
	jmp	.L91
	.cfi_endproc
.LFE159:
	.size	cartesian_init_vertex_scalar, .-cartesian_init_vertex_scalar
	.p2align 4
	.type	periodic_bc, @function
periodic_bc:
.LFB173:
	.cfi_startproc
	movsd	.LC2(%rip), %xmm0
	ret
	.cfi_endproc
.LFE173:
	.size	periodic_bc, .-periodic_bc
	.p2align 4
	.type	periodic_boundary, @function
periodic_boundary:
.LFB174:
	.cfi_startproc
	movq	all(%rip), %rcx
	testq	%rcx, %rcx
	je	.L110
	movslq	(%rcx), %rax
	testl	%eax, %eax
	js	.L110
	movslq	%edi, %rdi
	movq	_attribute(%rip), %r8
	movslq	%eax, %rdx
	movq	%rcx, %r9
	leaq	0(,%rdi,8), %rsi
	.p2align 4,,10
	.p2align 3
.L102:
	leaq	(%rdx,%rdx,4), %r10
	addq	$4, %r9
	leaq	(%rdx,%r10,2), %rdx
	salq	$4, %rdx
	addq	%r8, %rdx
	movq	8(%rdx), %r10
	movq	(%rdx), %rdx
	movq	$periodic_bc, (%r10,%rsi)
	movq	$periodic_bc, (%rdx,%rsi)
	movslq	(%r9), %rdx
	testl	%edx, %edx
	jns	.L102
	.p2align 4,,10
	.p2align 3
.L104:
	leaq	(%rax,%rax,4), %rdx
	leaq	(%rax,%rdx,2), %rax
	salq	$4, %rax
	addq	%r8, %rax
	movl	56(%rax), %edx
	testl	%edx, %edx
	je	.L103
	movslq	48(%rax), %rax
	leaq	(%rax,%rax,4), %rdx
	leaq	(%rax,%rdx,2), %rax
	salq	$4, %rax
	addq	%r8, %rax
	movq	8(%rax), %rdx
	movq	(%rax), %rax
	movq	$0, (%rdx,%rsi)
	movq	$0, (%rax,%rsi)
.L103:
	movslq	4(%rcx), %rax
	addq	$4, %rcx
	testl	%eax, %eax
	jns	.L104
.L101:
	movq	$periodic_bc, default_scalar_bc(,%rdi,8)
	movq	$periodic_bc, default_vector_bc(,%rdi,8)
	ret
	.p2align 4,,10
	.p2align 3
.L110:
	movslq	%edi, %rdi
	jmp	.L101
	.cfi_endproc
.LFE174:
	.size	periodic_boundary, .-periodic_boundary
	.p2align 4
	.type	restriction_average, @function
restriction_average:
.LFB181:
	.cfi_startproc
	pushq	%r14
	.cfi_def_cfa_offset 16
	.cfi_offset 14, -16
	movq	%rdi, %rax
	leal	-2(%rdi,%rdi), %ecx
	xorl	%r8d, %r8d
	pushq	%rbp
	.cfi_def_cfa_offset 24
	.cfi_offset 6, -24
	shrq	$32, %rax
	pxor	%xmm0, %xmm0
	pushq	%rbx
	.cfi_def_cfa_offset 32
	.cfi_offset 3, -32
	leal	-2(%rax,%rax), %eax
	movslq	%eax, %r11
	salq	$3, %r11
	movq	%rdi, -16(%rsp)
	movq	grid(%rip), %rdi
	movl	%esi, -8(%rsp)
	addl	$1, %esi
	movq	24(%rdi), %r10
	movslq	%esi, %rsi
	movslq	%edx, %rdi
	leaq	0(,%rsi,8), %rbx
	addq	$1, %rdi
	movq	(%r10,%rsi,8), %rdx
	movslq	%ecx, %rsi
	leaq	0(,%rdi,8), %r9
	movq	(%rdx), %rdx
	movq	16(%rdx), %rdx
	leaq	(%rdx,%rsi,8), %rbp
	leal	1(%rax), %edx
	movslq	%edx, %rdx
	salq	$3, %rdx
.L112:
	movq	0(%rbp,%r8,8), %rsi
	movq	(%rsi,%r11), %r14
	movq	(%rsi,%rdx), %rsi
	addsd	(%r14,%r9), %xmm0
	addsd	(%rsi,%r9), %xmm0
	cmpq	$1, %r8
	jne	.L113
	movq	-8(%r10,%rbx), %rdx
	addl	$2, %ecx
	addl	$2, %eax
	sarl	%ecx
	sarl	%eax
	movq	(%rdx), %rdx
	mulsd	.LC3(%rip), %xmm0
	movslq	%ecx, %rcx
	cltq
	movq	16(%rdx), %rdx
	movq	(%rdx,%rcx,8), %rdx
	movq	(%rdx,%rax,8), %rax
	movsd	%xmm0, (%rax,%rdi,8)
	popq	%rbx
	.cfi_remember_state
	.cfi_def_cfa_offset 24
	popq	%rbp
	.cfi_def_cfa_offset 16
	popq	%r14
	.cfi_def_cfa_offset 8
	ret
	.p2align 4,,10
	.p2align 3
.L113:
	.cfi_restore_state
	movl	$1, %r8d
	jmp	.L112
	.cfi_endproc
.LFE181:
	.size	restriction_average, .-restriction_average
	.p2align 4
	.type	restriction_volume_average, @function
restriction_volume_average:
.LFB182:
	.cfi_startproc
	pushq	%r14
	.cfi_def_cfa_offset 16
	.cfi_offset 14, -16
	movq	grid(%rip), %rcx
	movq	%rdi, %rax
	pushq	%r13
	.cfi_def_cfa_offset 24
	.cfi_offset 13, -24
	pushq	%r12
	.cfi_def_cfa_offset 32
	.cfi_offset 12, -32
	pushq	%rbp
	.cfi_def_cfa_offset 40
	.cfi_offset 6, -40
	pushq	%rbx
	.cfi_def_cfa_offset 48
	.cfi_offset 3, -48
	movq	24(%rcx), %r8
	movq	%rdi, %rbx
	shrq	$32, %rbx
	movl	%esi, -8(%rsp)
	addl	$1, %esi
	movslq	%esi, %rsi
	movq	%rdi, -16(%rsp)
	movslq	cm(%rip), %rdi
	movq	(%r8,%rsi,8), %rcx
	leaq	0(,%rsi,8), %r9
	movq	(%rcx), %rcx
	movq	16(%rcx), %r10
	movslq	%edx, %rcx
	leal	-2(%rax,%rax), %edx
	leal	-2(%rbx,%rbx), %eax
	addq	$1, %rcx
	leaq	0(,%rcx,8), %rsi
	cmpl	$65535, %edi
	jg	.L116
	movslq	%edx, %r11
	addl	$1, %edi
	movslq	%eax, %rbp
	xorl	%r14d, %r14d
	leaq	(%r10,%r11,8), %r12
	leal	1(%rax), %r10d
	movslq	%edi, %rdi
	salq	$3, %rbp
	movslq	%r10d, %r10
	leaq	0(,%rdi,8), %rbx
	pxor	%xmm0, %xmm0
	salq	$3, %r10
.L117:
	movq	(%r12,%r14,8), %r11
	movq	(%r11,%rbp), %r13
	movq	(%r11,%r10), %r11
	movsd	0(%r13,%rsi), %xmm1
	mulsd	0(%r13,%rbx), %xmm1
	addsd	%xmm1, %xmm0
	movsd	(%r11,%rbx), %xmm1
	mulsd	(%r11,%rsi), %xmm1
	addsd	%xmm1, %xmm0
	cmpq	$1, %r14
	jne	.L120
	movq	-8(%r8,%r9), %rsi
	addl	$2, %edx
	addl	$2, %eax
	movsd	.LC4(%rip), %xmm1
	sarl	%edx
	sarl	%eax
	movq	(%rsi), %rsi
	mulsd	.LC3(%rip), %xmm0
	movslq	%edx, %rdx
	cltq
	movq	16(%rsi), %rsi
	movq	(%rsi,%rdx,8), %rdx
	movq	(%rdx,%rax,8), %rax
	addsd	(%rax,%rdi,8), %xmm1
	divsd	%xmm1, %xmm0
	movsd	%xmm0, (%rax,%rcx,8)
	popq	%rbx
	.cfi_remember_state
	.cfi_def_cfa_offset 40
	popq	%rbp
	.cfi_def_cfa_offset 32
	popq	%r12
	.cfi_def_cfa_offset 24
	popq	%r13
	.cfi_def_cfa_offset 16
	popq	%r14
	.cfi_def_cfa_offset 8
	ret
	.p2align 4,,10
	.p2align 3
.L120:
	.cfi_restore_state
	movl	$1, %r14d
	jmp	.L117
	.p2align 4,,10
	.p2align 3
.L116:
	movq	_constant(%rip), %r11
	movslq	%eax, %rbx
	pxor	%xmm0, %xmm0
	salq	$3, %rbx
	movsd	-524288(%r11,%rdi,8), %xmm1
	movslq	%edx, %rdi
	xorl	%r11d, %r11d
	leaq	(%r10,%rdi,8), %rbp
	leal	1(%rax), %edi
	movslq	%edi, %rdi
	salq	$3, %rdi
.L119:
	movq	0(%rbp,%r11,8), %r10
	movq	(%r10,%rbx), %r12
	movq	(%r10,%rdi), %r10
	movsd	(%r12,%rsi), %xmm2
	mulsd	%xmm1, %xmm2
	addsd	%xmm2, %xmm0
	movsd	(%r10,%rsi), %xmm2
	mulsd	%xmm1, %xmm2
	addsd	%xmm2, %xmm0
	cmpq	$1, %r11
	jne	.L121
	mulsd	.LC3(%rip), %xmm0
	movq	-8(%r8,%r9), %rsi
	addl	$2, %edx
	addl	$2, %eax
	addsd	.LC4(%rip), %xmm1
	sarl	%edx
	sarl	%eax
	movq	(%rsi), %rsi
	movslq	%edx, %rdx
	cltq
	movq	16(%rsi), %rsi
	divsd	%xmm1, %xmm0
	movq	(%rsi,%rdx,8), %rdx
	movq	(%rdx,%rax,8), %rax
	movsd	%xmm0, (%rax,%rcx,8)
	popq	%rbx
	.cfi_remember_state
	.cfi_def_cfa_offset 40
	popq	%rbp
	.cfi_def_cfa_offset 32
	popq	%r12
	.cfi_def_cfa_offset 24
	popq	%r13
	.cfi_def_cfa_offset 16
	popq	%r14
	.cfi_def_cfa_offset 8
	ret
	.p2align 4,,10
	.p2align 3
.L121:
	.cfi_restore_state
	movl	$1, %r11d
	jmp	.L119
	.cfi_endproc
.LFE182:
	.size	restriction_volume_average, .-restriction_volume_average
	.p2align 4
	.type	restriction_face, @function
restriction_face:
.LFB184:
	.cfi_startproc
	movq	grid(%rip), %rcx
	pushq	%r15
	.cfi_def_cfa_offset 16
	.cfi_offset 15, -16
	movslq	%esi, %rsi
	movslq	%edx, %rdx
	pushq	%r14
	.cfi_def_cfa_offset 24
	.cfi_offset 14, -24
	addq	$1, %rsi
	leaq	(%rdx,%rdx,4), %rax
	movsd	.LC5(%rip), %xmm1
	pushq	%r13
	.cfi_def_cfa_offset 32
	.cfi_offset 13, -32
	leaq	(%rdx,%rax,2), %rdx
	pushq	%r12
	.cfi_def_cfa_offset 40
	.cfi_offset 12, -40
	movslq	%edi, %r12
	shrq	$32, %rdi
	pushq	%rbp
	.cfi_def_cfa_offset 48
	.cfi_offset 6, -48
	leal	-2(%r12,%r12), %r8d
	salq	$4, %rdx
	addq	_attribute(%rip), %rdx
	pushq	%rbx
	.cfi_def_cfa_offset 56
	.cfi_offset 3, -56
	movq	24(%rcx), %rbp
	movslq	%r8d, %r8
	movslq	52(%rdx), %rax
	movslq	48(%rdx), %rdx
	movq	0(%rbp,%rsi,8), %rcx
	movq	-8(%rbp,%rsi,8), %rsi
	addq	$1, %rdx
	addq	$1, %rax
	movq	(%rcx), %rcx
	movq	(%rsi), %rsi
	movq	16(%rcx), %r10
	leal	-2(%rdi,%rdi), %ecx
	movq	16(%rsi), %r14
	movslq	%edi, %rdi
	movslq	%ecx, %rcx
	movq	(%r10,%r8,8), %r9
	leaq	1(%rcx), %r13
	movq	(%r14,%r12,8), %rsi
	leaq	0(,%rcx,8), %r11
	movq	8(%r14,%r12,8), %r12
	movq	(%r9,%rcx,8), %rbx
	movq	(%r9,%r13,8), %r15
	movq	(%rsi,%rdi,8), %rbp
	movq	(%r12,%rdi,8), %r12
	movsd	(%r15,%rdx,8), %xmm0
	addsd	(%rbx,%rdx,8), %xmm0
	movq	16(%r10,%r8,8), %r15
	mulsd	%xmm1, %xmm0
	movq	(%r15,%rcx,8), %r14
	movq	(%r15,%r13,8), %r13
	movsd	%xmm0, 0(%rbp,%rdx,8)
	movsd	(%r14,%rdx,8), %xmm0
	addsd	0(%r13,%rdx,8), %xmm0
	mulsd	%xmm1, %xmm0
	movsd	%xmm0, (%r12,%rdx,8)
	movq	8(%r10,%r8,8), %rdx
	movq	(%rdx,%rcx,8), %rcx
	movq	16(%rdx,%r11), %rdx
	movsd	(%rcx,%rax,8), %xmm0
	addsd	(%rbx,%rax,8), %xmm0
	movq	8(%rsi,%rdi,8), %rcx
	movq	16(%r9,%r11), %rsi
	mulsd	%xmm1, %xmm0
	movsd	%xmm0, 0(%rbp,%rax,8)
	movsd	(%rsi,%rax,8), %xmm0
	addsd	(%rdx,%rax,8), %xmm0
	mulsd	%xmm1, %xmm0
	movsd	%xmm0, (%rcx,%rax,8)
	popq	%rbx
	.cfi_def_cfa_offset 48
	popq	%rbp
	.cfi_def_cfa_offset 40
	popq	%r12
	.cfi_def_cfa_offset 32
	popq	%r13
	.cfi_def_cfa_offset 24
	popq	%r14
	.cfi_def_cfa_offset 16
	popq	%r15
	.cfi_def_cfa_offset 8
	ret
	.cfi_endproc
.LFE184:
	.size	restriction_face, .-restriction_face
	.p2align 4
	.type	restriction_vertex, @function
restriction_vertex:
.LFB185:
	.cfi_startproc
	pushq	%rbp
	.cfi_def_cfa_offset 16
	.cfi_offset 6, -16
	movq	%rdi, %rcx
	movq	%rdi, %rax
	movslq	%edx, %rdx
	pushq	%rbx
	.cfi_def_cfa_offset 24
	.cfi_offset 3, -24
	leaq	8(,%rdx,8), %r8
	movslq	%ecx, %rdx
	shrq	$32, %rax
	leal	-2(%rax,%rax), %r9d
	cltq
	movslq	%r9d, %r9
	salq	$3, %rax
	movq	%rdi, -16(%rsp)
	movq	grid(%rip), %rdi
	salq	$3, %r9
	leaq	8(%rax), %r11
	movl	%esi, -8(%rsp)
	movslq	%esi, %rsi
	leaq	16(%r9), %rbx
	movq	24(%rdi), %r10
	addq	$1, %rsi
	movq	%rdx, %rdi
	salq	$4, %rdi
	movq	(%r10,%rsi,8), %rcx
	movq	(%rcx), %rcx
	addq	16(%rcx), %rdi
	movq	-8(%r10,%rsi,8), %rcx
	movq	(%rcx), %rcx
	movq	16(%rcx), %rcx
	leaq	(%rcx,%rdx,8), %rbp
	xorl	%edx, %edx
.L126:
	movq	%rdx, %rcx
	salq	$4, %rcx
	movq	-16(%rdi,%rcx), %rsi
	movq	0(%rbp,%rdx,8), %rcx
	movq	(%rsi,%r9), %r10
	movq	(%rsi,%rbx), %rsi
	movsd	(%r10,%r8), %xmm0
	movq	(%rcx,%rax), %r10
	movq	(%rcx,%r11), %rcx
	movsd	%xmm0, (%r10,%r8)
	movsd	(%rsi,%r8), %xmm0
	movsd	%xmm0, (%rcx,%r8)
	cmpq	$1, %rdx
	jne	.L127
	popq	%rbx
	.cfi_remember_state
	.cfi_def_cfa_offset 16
	popq	%rbp
	.cfi_def_cfa_offset 8
	ret
	.p2align 4,,10
	.p2align 3
.L127:
	.cfi_restore_state
	movl	$1, %edx
	jmp	.L126
	.cfi_endproc
.LFE185:
	.size	restriction_vertex, .-restriction_vertex
	.p2align 4
	.type	no_restriction, @function
no_restriction:
.LFB186:
	.cfi_startproc
	ret
	.cfi_endproc
.LFE186:
	.size	no_restriction, .-no_restriction
	.p2align 4
	.type	no_data, @function
no_data:
.LFB187:
	.cfi_startproc
	movslq	%edx, %rdx
	movq	%rdi, %rcx
	movq	%rdi, %rax
	movq	%rdi, -16(%rsp)
	leaq	8(,%rdx,8), %rdi
	movl	%esi, -8(%rsp)
	movq	grid(%rip), %rdx
	addl	$1, %esi
	movslq	%esi, %rsi
	shrq	$32, %rax
	movsd	.LC2(%rip), %xmm0
	movq	24(%rdx), %rdx
	leal	-2(%rax,%rax), %eax
	movq	(%rdx,%rsi,8), %rdx
	movq	(%rdx), %rsi
	leal	-2(%rcx,%rcx), %edx
	movslq	%edx, %rdx
	movq	16(%rsi), %rcx
	movslq	%eax, %rsi
	addl	$1, %eax
	cltq
	salq	$3, %rsi
	leaq	(%rcx,%rdx,8), %r9
	salq	$3, %rax
	xorl	%ecx, %ecx
.L131:
	movq	(%r9,%rcx,8), %rdx
	movq	(%rdx,%rsi), %r8
	movq	(%rdx,%rax), %rdx
	movsd	%xmm0, (%r8,%rdi)
	movsd	%xmm0, (%rdx,%rdi)
	cmpq	$1, %rcx
	jne	.L132
	ret
	.p2align 4,,10
	.p2align 3
.L132:
	movl	$1, %ecx
	jmp	.L131
	.cfi_endproc
.LFE187:
	.size	no_data, .-no_data
	.p2align 4
	.type	refine_bilinear, @function
refine_bilinear:
.LFB191:
	.cfi_startproc
	movq	%rdi, %rax
	pushq	%r15
	.cfi_def_cfa_offset 16
	.cfi_offset 15, -16
	movslq	%edx, %rdx
	movsd	.LC6(%rip), %xmm4
	pushq	%r14
	.cfi_def_cfa_offset 24
	.cfi_offset 14, -24
	shrq	$32, %rax
	movsd	.LC7(%rip), %xmm3
	pushq	%r13
	.cfi_def_cfa_offset 32
	.cfi_offset 13, -32
	leal	-2(%rax,%rax), %ecx
	movq	grid(%rip), %rax
	pushq	%r12
	.cfi_def_cfa_offset 40
	.cfi_offset 12, -40
	movslq	%ecx, %r14
	movsd	.LC8(%rip), %xmm2
	leal	2(%rcx), %r9d
	pushq	%rbp
	.cfi_def_cfa_offset 48
	.cfi_offset 6, -48
	salq	$3, %r14
	pushq	%rbx
	.cfi_def_cfa_offset 56
	.cfi_offset 3, -56
	movq	24(%rax), %r8
	leaq	8(,%rdx,8), %rax
	xorl	%ebx, %ebx
	movl	%esi, -8(%rsp)
	addl	$1, %esi
	movslq	%esi, %rsi
	movq	%rdi, -16(%rsp)
	leal	-2(%rdi,%rdi), %edi
	movq	-8(%r8,%rsi,8), %rdx
	leal	2(%rdi), %r12d
	movq	(%rdx), %rdx
	movq	16(%rdx), %r13
	movq	(%r8,%rsi,8), %rdx
	movslq	%edi, %rsi
	movq	(%rdx), %rdx
	movq	16(%rdx), %rdx
	leaq	(%rdx,%rsi,8), %r15
.L135:
	movl	%r12d, %ecx
	leal	(%r12,%rbx), %edx
	movq	(%r15,%rbx,8), %rbp
	shrl	$31, %ecx
	addl	%edx, %ecx
	addq	%r14, %rbp
	sarl	%ecx
	movslq	%ecx, %rsi
	movq	0(%r13,%rsi,8), %r8
	movl	%edx, %esi
	shrl	$31, %esi
	addl	%esi, %edx
	andl	$1, %edx
	subl	%esi, %edx
	leal	-1(%rcx,%rdx,2), %edx
	xorl	%ecx, %ecx
	movslq	%edx, %rdx
	movq	0(%r13,%rdx,8), %rdi
.L134:
	leal	(%r9,%rcx), %edx
	movl	%r9d, %r10d
	movl	%edx, %r11d
	shrl	$31, %r10d
	shrl	$31, %r11d
	addl	%edx, %r10d
	addl	%r11d, %edx
	sarl	%r10d
	andl	$1, %edx
	movslq	%r10d, %rsi
	subl	%r11d, %edx
	movq	(%rdi,%rsi,8), %r11
	movq	(%r8,%rsi,8), %rsi
	leal	-1(%r10,%rdx,2), %edx
	movslq	%edx, %rdx
	movsd	(%r11,%rax), %xmm0
	movsd	(%rsi,%rax), %xmm1
	movq	(%r8,%rdx,8), %r10
	movq	(%rdi,%rdx,8), %rdx
	mulsd	%xmm3, %xmm1
	movq	0(%rbp,%rcx,8), %rsi
	addsd	(%r10,%rax), %xmm0
	mulsd	%xmm4, %xmm0
	addsd	%xmm1, %xmm0
	addsd	(%rdx,%rax), %xmm0
	mulsd	%xmm2, %xmm0
	movsd	%xmm0, (%rsi,%rax)
	cmpq	$1, %rcx
	jne	.L136
	cmpq	$1, %rbx
	jne	.L137
	popq	%rbx
	.cfi_remember_state
	.cfi_def_cfa_offset 48
	popq	%rbp
	.cfi_def_cfa_offset 40
	popq	%r12
	.cfi_def_cfa_offset 32
	popq	%r13
	.cfi_def_cfa_offset 24
	popq	%r14
	.cfi_def_cfa_offset 16
	popq	%r15
	.cfi_def_cfa_offset 8
	ret
	.p2align 4,,10
	.p2align 3
.L136:
	.cfi_restore_state
	movl	$1, %ecx
	jmp	.L134
	.p2align 4,,10
	.p2align 3
.L137:
	movl	$1, %ebx
	jmp	.L135
	.cfi_endproc
.LFE191:
	.size	refine_bilinear, .-refine_bilinear
	.p2align 4
	.type	refine_injection, @function
refine_injection:
.LFB198:
	.cfi_startproc
	movslq	%edi, %r11
	movq	%rdi, %rax
	movq	%rdi, -16(%rsp)
	movslq	%edx, %rdx
	movq	grid(%rip), %rdi
	movl	%esi, -8(%rsp)
	movslq	%esi, %rsi
	shrq	$32, %rax
	movslq	%eax, %r10
	addq	$1, %rdx
	leal	-2(%rax,%rax), %eax
	movq	24(%rdi), %r8
	leaq	0(,%rdx,8), %rdi
	movq	(%r8,%rsi,8), %r9
	movq	(%r9), %r9
	movq	16(%r9), %r9
	movq	(%r9,%r11,8), %r9
	movq	(%r9,%r10,8), %r9
	movsd	(%r9,%rdx,8), %xmm0
	movq	8(%r8,%rsi,8), %rdx
	movq	(%rdx), %rsi
	leal	-2(%r11,%r11), %edx
	movslq	%edx, %rdx
	movq	16(%rsi), %rcx
	movslq	%eax, %rsi
	addl	$1, %eax
	cltq
	salq	$3, %rsi
	leaq	(%rcx,%rdx,8), %r9
	salq	$3, %rax
	xorl	%ecx, %ecx
.L140:
	movq	(%r9,%rcx,8), %rdx
	movq	(%rdx,%rsi), %r8
	movq	(%rdx,%rax), %rdx
	movsd	%xmm0, (%r8,%rdi)
	movsd	%xmm0, (%rdx,%rdi)
	cmpq	$1, %rcx
	jne	.L141
	ret
	.p2align 4,,10
	.p2align 3
.L141:
	movl	$1, %ecx
	jmp	.L140
	.cfi_endproc
.LFE198:
	.size	refine_injection, .-refine_injection
	.p2align 4
	.type	prolongation_vertex, @function
prolongation_vertex:
.LFB213:
	.cfi_startproc
	pushq	%r15
	.cfi_def_cfa_offset 16
	.cfi_offset 15, -16
	movslq	%esi, %rcx
	movl	%edx, %r8d
	movq	%rdi, %rax
	pushq	%r14
	.cfi_def_cfa_offset 24
	.cfi_offset 14, -24
	shrq	$32, %rax
	movslq	%edi, %r10
	pushq	%r13
	.cfi_def_cfa_offset 32
	.cfi_offset 13, -32
	movq	%rax, %r14
	movq	%r10, %r13
	salq	$3, %r10
	pushq	%r12
	.cfi_def_cfa_offset 40
	.cfi_offset 12, -40
	pushq	%rbp
	.cfi_def_cfa_offset 48
	.cfi_offset 6, -48
	movq	%rcx, %rbp
	pushq	%rbx
	.cfi_def_cfa_offset 56
	.cfi_offset 3, -56
	subq	$16, %rsp
	.cfi_def_cfa_offset 72
	movq	grid(%rip), %rsi
	movq	%rdi, (%rsp)
	movslq	%r14d, %rdi
	movq	24(%rsi), %rdx
	leaq	0(,%rdi,8), %r11
	movl	%ecx, 8(%rsp)
	movq	(%rdx,%rcx,8), %rax
	movq	8(%rdx,%rcx,8), %rdx
	leal	-2(%r13,%r13), %ecx
	movl	%ecx, -96(%rsp)
	movslq	%ecx, %rcx
	movq	(%rax), %rax
	movq	16(%rax), %r12
	leaq	(%r12,%r10), %rax
	movq	8(%r12,%r10), %r10
	movq	(%rax), %rbx
	movq	%rax, -72(%rsp)
	movq	%r10, -56(%rsp)
	leaq	(%rbx,%r11), %rax
	movq	(%rax), %r9
	movq	%rax, -64(%rsp)
	movslq	%r8d, %rax
	addq	$1, %rax
	leaq	0(,%rax,8), %r15
	movq	%r15, -112(%rsp)
	leaq	8(%r11), %r15
	movq	%r15, -48(%rsp)
	movq	(%rdx), %r15
	movq	16(%r15), %rdx
	movq	%rdx, -104(%rsp)
	movq	8(%rdx,%rcx,8), %rdx
	leal	-2(%r14,%r14), %ecx
	movl	%ecx, -24(%rsp)
	movslq	%ecx, %rcx
	addq	$1, %rcx
	movq	%rdx, -40(%rsp)
	leaq	0(,%rcx,8), %r8
	movq	(%rdx,%rcx,8), %rcx
	movq	%r8, -32(%rsp)
	movq	(%r10,%rdi,8), %rdi
	movl	-96(%rsp), %edx
	movq	-112(%rsp), %r8
	movq	%r11, -16(%rsp)
	movsd	(%rdi,%rax,8), %xmm0
	movq	8(%rbx,%r11), %rdi
	addsd	(%r9,%rax,8), %xmm0
	movsd	.LC5(%rip), %xmm1
	addsd	(%rdi,%rax,8), %xmm0
	movq	8(%r10,%r11), %rdi
	movq	%r9, %r11
	addsd	(%rdi,%rax,8), %xmm0
	mulsd	.LC3(%rip), %xmm0
	xorl	%edi, %edi
	movsd	%xmm0, (%rcx,%rax,8)
	movl	16(%rsi), %eax
	movl	%eax, -116(%rsp)
	movl	%r14d, %eax
	subl	%r13d, %eax
	addl	%eax, %eax
	movl	%eax, -20(%rsp)
	leal	2(%r14), %eax
	movl	%eax, -96(%rsp)
	movl	%r13d, %eax
	movq	%r12, %r13
	movl	%eax, %r12d
.L143:
	movq	-104(%rsp), %rax
	movslq	%edx, %rsi
	movl	-24(%rsp), %ecx
	movl	%edi, -92(%rsp)
	salq	$3, %rsi
	movq	%rdi, -112(%rsp)
	leaq	(%rax,%rsi), %r10
	leal	(%r12,%rdi), %eax
	movq	%rsi, -88(%rsp)
	cltq
	leaq	0(%r13,%rax,8), %rax
	movq	%rax, -80(%rsp)
	movl	%r14d, %eax
.L145:
	cmpl	%ebp, -116(%rsp)
	jle	.L144
	cmpl	(%r15), %edx
	jl	.L144
	cmpl	4(%r15), %edx
	jge	.L144
	movq	(%r10), %rdi
	movq	%rdi, %rsi
	testq	%rdi, %rdi
	je	.L144
	movq	-88(%rsp), %rdi
	addq	8(%r15), %rdi
	cmpl	(%rdi), %ecx
	jge	.L157
	.p2align 4,,10
	.p2align 3
.L144:
	addl	$1, %eax
	addl	$2, %ecx
	cmpl	-96(%rsp), %eax
	jne	.L145
	cmpw	$0, 2(%r9)
	movq	-112(%rsp), %rdi
	je	.L146
	movq	(%r10), %rax
	movq	-32(%rsp), %rsi
	movq	(%rax,%rsi), %rax
	movq	-48(%rsp), %rsi
	movq	(%rbx,%rsi), %rcx
	movsd	(%rcx,%r8), %xmm0
	addsd	(%r9,%r8), %xmm0
	mulsd	%xmm1, %xmm0
	movsd	%xmm0, (%rax,%r8)
.L146:
	cmpw	$0, 2(%r11)
	je	.L147
	movl	-20(%rsp), %eax
	movq	-40(%rsp), %rbx
	movl	-92(%rsp), %ecx
	addl	%edx, %eax
	cltq
	addl	%r14d, %ecx
	movq	(%rbx,%rax,8), %rax
	movq	-56(%rsp), %rbx
	movslq	%ecx, %rcx
	movq	(%rbx,%rcx,8), %rcx
	movsd	(%rcx,%r8), %xmm0
	addsd	(%r11,%r8), %xmm0
	mulsd	%xmm1, %xmm0
	movsd	%xmm0, (%rax,%r8)
.L147:
	addl	$2, %edx
	cmpq	$1, %rdi
	je	.L142
	movq	-72(%rsp), %rax
	movl	$1, %edi
	movq	8(%rax), %rbx
	movq	-16(%rsp), %rax
	movq	(%rbx,%rax), %r9
	movq	-64(%rsp), %rax
	movq	8(%rax), %r11
	jmp	.L143
	.p2align 4,,10
	.p2align 3
.L142:
	addq	$16, %rsp
	.cfi_remember_state
	.cfi_def_cfa_offset 56
	popq	%rbx
	.cfi_def_cfa_offset 48
	popq	%rbp
	.cfi_def_cfa_offset 40
	popq	%r12
	.cfi_def_cfa_offset 32
	popq	%r13
	.cfi_def_cfa_offset 24
	popq	%r14
	.cfi_def_cfa_offset 16
	popq	%r15
	.cfi_def_cfa_offset 8
	ret
	.p2align 4,,10
	.p2align 3
.L157:
	.cfi_restore_state
	cmpl	4(%rdi), %ecx
	jge	.L144
	movq	%rsi, %rdi
	movslq	%ecx, %rsi
	movq	(%rdi,%rsi,8), %rdi
	movq	%rdi, -8(%rsp)
	testq	%rdi, %rdi
	je	.L144
	movq	-80(%rsp), %rsi
	movslq	%eax, %rdi
	movq	(%rsi), %rsi
	movq	(%rsi,%rdi,8), %rsi
	movq	-8(%rsp), %rdi
	movsd	(%rsi,%r8), %xmm0
	movsd	%xmm0, (%rdi,%r8)
	jmp	.L144
	.cfi_endproc
.LFE213:
	.size	prolongation_vertex, .-prolongation_vertex
	.p2align 4
	.type	refine_face_x, @function
refine_face_x:
.LFB215:
	.cfi_startproc
	movq	%rdi, %rax
	movslq	%edx, %rdx
	pushq	%r15
	.cfi_def_cfa_offset 16
	.cfi_offset 15, -16
	movl	%edi, %r10d
	shrq	$32, %rax
	pushq	%r14
	.cfi_def_cfa_offset 24
	.cfi_offset 14, -24
	movq	%rax, %r9
	leaq	(%rdx,%rdx,4), %rax
	pushq	%r13
	.cfi_def_cfa_offset 32
	.cfi_offset 13, -32
	leaq	(%rdx,%rax,2), %rax
	pushq	%r12
	.cfi_def_cfa_offset 40
	.cfi_offset 12, -40
	movslq	%r9d, %rdx
	pushq	%rbp
	.cfi_def_cfa_offset 48
	.cfi_offset 6, -48
	salq	$4, %rax
	addq	_attribute(%rip), %rax
	leaq	0(,%rdx,8), %rcx
	pushq	%rbx
	.cfi_def_cfa_offset 56
	.cfi_offset 3, -56
	movl	48(%rax), %eax
	movl	%eax, -20(%rsp)
	movq	grid(%rip), %rax
	movl	%esi, -8(%rsp)
	movslq	%esi, %rsi
	movq	24(%rax), %r11
	leaq	0(,%rsi,8), %rax
	movq	%rdi, -16(%rsp)
	movq	%rax, -32(%rsp)
	movq	(%r11,%rsi,8), %rax
	movslq	%edi, %rsi
	leaq	0(,%rsi,8), %rbp
	movq	(%rax), %rax
	movq	16(%rax), %r8
	movq	-8(%r8,%rbp), %rax
	movq	(%r8,%rsi,8), %rdi
	movq	(%rax,%rdx,8), %rax
	movq	(%rdi,%rdx,8), %r15
	movl	4(%r15), %ebx
	testb	$2, (%rax)
	jne	.L159
	cmpw	$0, 2(%rax)
	jne	.L180
.L159:
	testl	%ebx, %ebx
	jne	.L181
.L161:
	movslq	-20(%rsp), %rax
	movq	8(%rdi,%rcx), %r13
	movq	-8(%rdi,%rcx), %rsi
	addq	$1, %rax
	movsd	0(%r13,%rax,8), %xmm0
	subsd	(%rsi,%rax,8), %xmm0
	leaq	(%r15,%rax,8), %r14
	movq	-32(%rsp), %rsi
	mulsd	.LC9(%rip), %xmm0
	movq	%r14, %r12
	movsd	(%r12), %xmm1
	movq	8(%r11,%rsi), %rsi
	movq	(%rsi), %r14
	leal	-2(%r10,%r10), %esi
	movslq	%esi, %rsi
	subsd	%xmm0, %xmm1
	movq	16(%r14), %r14
	movq	(%r14,%rsi,8), %r14
	leal	-2(%r9,%r9), %esi
	movslq	%esi, %r13
	addl	$1, %esi
	movq	(%r14,%r13,8), %r13
	movslq	%esi, %rsi
	movq	(%r14,%rsi,8), %rsi
	movsd	%xmm1, 0(%r13,%rax,8)
	addsd	(%r12), %xmm0
	movsd	%xmm0, (%rsi,%rax,8)
.L160:
	movq	8(%r8,%rbp), %rsi
	movq	(%rsi,%rdx,8), %rax
	movzwl	2(%rax), %edx
	testb	$2, (%rax)
	jne	.L162
	testw	%dx, %dx
	jne	.L163
.L167:
	testl	%ebx, %ebx
	jne	.L158
.L164:
	movslq	-20(%rsp), %rdx
	movq	8(%rdi,%rcx), %rbx
	movq	-8(%rdi,%rcx), %rdi
	movsd	.LC5(%rip), %xmm2
	addq	$1, %rdx
	movsd	(%rbx,%rdx,8), %xmm0
	movq	-32(%rsp), %rbx
	leaq	0(,%rdx,8), %r8
	subsd	(%rdi,%rdx,8), %xmm0
	movq	8(%rsi,%rcx), %rdi
	addq	%r8, %rax
	movq	-8(%rsi,%rcx), %rcx
	movsd	(%rax), %xmm1
	addsd	(%rdi,%rdx,8), %xmm0
	subsd	(%rcx,%rdx,8), %xmm0
	movq	8(%r11,%rbx), %rcx
	mulsd	.LC8(%rip), %xmm0
	movq	(%rcx), %rsi
	leal	-2(%r10,%r10), %ecx
	movslq	%ecx, %rcx
	movq	16(%rsi), %rsi
	movq	8(%rsi,%rcx,8), %rdi
	leaq	(%r15,%r8), %rcx
	leal	-2(%r9,%r9), %esi
	addsd	(%rcx), %xmm1
	movslq	%esi, %r8
	addl	$1, %esi
	movq	(%rdi,%r8,8), %r8
	movslq	%esi, %rsi
	movq	(%rdi,%rsi,8), %rsi
	mulsd	%xmm2, %xmm1
	subsd	%xmm0, %xmm1
	movsd	%xmm1, (%r8,%rdx,8)
	movsd	(%rcx), %xmm1
	addsd	(%rax), %xmm1
	mulsd	%xmm2, %xmm1
	addsd	%xmm0, %xmm1
	movsd	%xmm1, (%rsi,%rdx,8)
.L158:
	popq	%rbx
	.cfi_remember_state
	.cfi_def_cfa_offset 48
	popq	%rbp
	.cfi_def_cfa_offset 40
	popq	%r12
	.cfi_def_cfa_offset 32
	popq	%r13
	.cfi_def_cfa_offset 24
	popq	%r14
	.cfi_def_cfa_offset 16
	popq	%r15
	.cfi_def_cfa_offset 8
	ret
	.p2align 4,,10
	.p2align 3
.L181:
	.cfi_restore_state
	movl	4(%rax), %r12d
	testl	%r12d, %r12d
	jne	.L160
	jmp	.L161
	.p2align 4,,10
	.p2align 3
.L180:
	movl	4(%rax), %r13d
	testl	%r13d, %r13d
	jns	.L160
	jmp	.L159
	.p2align 4,,10
	.p2align 3
.L163:
	movl	4(%rax), %r8d
	testl	%r8d, %r8d
	jns	.L167
.L166:
	testl	%ebx, %ebx
	je	.L168
	movl	4(%rax), %edx
	testl	%edx, %edx
	jne	.L158
.L168:
	movslq	-20(%rsp), %r8
	movq	8(%rsi,%rcx), %rbp
	movq	-8(%rsi,%rcx), %rdx
	addq	$1, %r8
	movsd	0(%rbp,%r8,8), %xmm0
	subsd	(%rdx,%r8,8), %xmm0
	movq	-32(%rsp), %rdx
	mulsd	.LC9(%rip), %xmm0
	movq	8(%r11,%rdx), %rdx
	movq	(%rdx), %rbp
	leal	-2(%r10,%r10), %edx
	movslq	%edx, %rdx
	movq	16(%rbp), %rbp
	movq	16(%rbp,%rdx,8), %r13
	leaq	(%rax,%r8,8), %rbp
	leal	-2(%r9,%r9), %edx
	movsd	0(%rbp), %xmm1
	movslq	%edx, %r14
	addl	$1, %edx
	movq	0(%r13,%r14,8), %r14
	movslq	%edx, %rdx
	subsd	%xmm0, %xmm1
	movq	0(%r13,%rdx,8), %rdx
	movsd	%xmm1, (%r14,%r8,8)
	addsd	0(%rbp), %xmm0
	movsd	%xmm0, (%rdx,%r8,8)
	testl	%ebx, %ebx
	je	.L164
	jmp	.L158
	.p2align 4,,10
	.p2align 3
.L162:
	testw	%dx, %dx
	jne	.L166
	testl	%ebx, %ebx
	je	.L164
	jmp	.L158
	.cfi_endproc
.LFE215:
	.size	refine_face_x, .-refine_face_x
	.p2align 4
	.type	refine_face_y, @function
refine_face_y:
.LFB216:
	.cfi_startproc
	movq	%rdi, %rax
	movslq	%edx, %rdx
	pushq	%r15
	.cfi_def_cfa_offset 16
	.cfi_offset 15, -16
	movl	%edi, %r10d
	shrq	$32, %rax
	pushq	%r14
	.cfi_def_cfa_offset 24
	.cfi_offset 14, -24
	movq	%rax, %r14
	leaq	(%rdx,%rdx,4), %rax
	pushq	%r13
	.cfi_def_cfa_offset 32
	.cfi_offset 13, -32
	leaq	(%rdx,%rax,2), %rax
	pushq	%r12
	.cfi_def_cfa_offset 40
	.cfi_offset 12, -40
	movslq	%r14d, %rdx
	pushq	%rbp
	.cfi_def_cfa_offset 48
	.cfi_offset 6, -48
	salq	$4, %rax
	addq	_attribute(%rip), %rax
	pushq	%rbx
	.cfi_def_cfa_offset 56
	.cfi_offset 3, -56
	movl	52(%rax), %eax
	movl	%eax, -28(%rsp)
	movq	grid(%rip), %rax
	movl	%esi, -8(%rsp)
	movslq	%esi, %rsi
	movq	24(%rax), %r11
	leaq	0(,%rsi,8), %rax
	movq	%rdi, -16(%rsp)
	movq	%rax, -40(%rsp)
	movq	(%r11,%rsi,8), %rax
	movq	(%rax), %rax
	movq	16(%rax), %rsi
	movslq	%edi, %rax
	leaq	0(,%rdx,8), %rdi
	leaq	0(,%rax,8), %r9
	movq	(%rsi,%rax,8), %r8
	movq	(%r8,%rdx,8), %rbx
	movq	-8(%r8,%rdi), %rax
	movq	%rbx, -24(%rsp)
	movl	4(%rbx), %ebp
	testb	$2, (%rax)
	jne	.L183
	cmpw	$0, 2(%rax)
	jne	.L205
.L183:
	testl	%ebp, %ebp
	jne	.L206
.L185:
	movq	8(%rsi,%r9), %rax
	movslq	-28(%rsp), %rcx
	movq	(%rax,%rdx,8), %rbx
	movq	-8(%rsi,%r9), %rax
	addq	$1, %rcx
	movq	(%rax,%rdx,8), %rax
	movsd	(%rbx,%rcx,8), %xmm0
	leal	-2(%r14,%r14), %ebx
	movslq	%ebx, %rbx
	subsd	(%rax,%rcx,8), %xmm0
	movq	-24(%rsp), %rax
	mulsd	.LC9(%rip), %xmm0
	leaq	(%rax,%rcx,8), %r13
	movq	-40(%rsp), %rax
	movsd	0(%r13), %xmm1
	movq	8(%r11,%rax), %rax
	movq	(%rax), %rax
	subsd	%xmm0, %xmm1
	movq	16(%rax), %r12
	leal	-2(%r10,%r10), %eax
	movslq	%eax, %r15
	addl	$1, %eax
	movq	(%r12,%r15,8), %r15
	cltq
	movq	(%r12,%rax,8), %rax
	movq	(%r15,%rbx,8), %r15
	movq	(%rax,%rbx,8), %rax
	movsd	%xmm1, (%r15,%rcx,8)
	addsd	0(%r13), %xmm0
	movsd	%xmm0, (%rax,%rcx,8)
.L184:
	movq	8(%r8,%rdi), %rax
	movzwl	2(%rax), %ecx
	testb	$2, (%rax)
	jne	.L186
.L207:
	testw	%cx, %cx
	jne	.L187
.L191:
	testl	%ebp, %ebp
	jne	.L182
.L188:
	movq	8(%rsi,%r9), %rbx
	movq	-8(%rsi,%r9), %rsi
	movslq	-28(%rsp), %rcx
	movsd	.LC5(%rip), %xmm2
	movq	(%rbx,%rdx,8), %r9
	movq	(%rsi,%rdx,8), %rdx
	addq	$1, %rcx
	movsd	(%r9,%rcx,8), %xmm0
	subsd	(%rdx,%rcx,8), %xmm0
	leaq	0(,%rcx,8), %r8
	movq	8(%rbx,%rdi), %rdx
	addq	%r8, %rax
	addq	-24(%rsp), %r8
	movsd	(%rax), %xmm1
	addsd	(%r8), %xmm1
	addsd	(%rdx,%rcx,8), %xmm0
	movq	8(%rsi,%rdi), %rdx
	leal	-2(%r10,%r10), %esi
	movq	-40(%rsp), %rdi
	movslq	%esi, %r9
	addl	$1, %esi
	subsd	(%rdx,%rcx,8), %xmm0
	mulsd	%xmm2, %xmm1
	movslq	%esi, %rsi
	movq	8(%r11,%rdi), %rdx
	mulsd	.LC8(%rip), %xmm0
	movq	(%rdx), %rdx
	movq	16(%rdx), %rdi
	leal	-2(%r14,%r14), %edx
	movslq	%edx, %rdx
	subsd	%xmm0, %xmm1
	movq	(%rdi,%r9,8), %r9
	addq	$1, %rdx
	movq	(%rdi,%rsi,8), %rsi
	movq	(%r9,%rdx,8), %r9
	movq	(%rsi,%rdx,8), %rdx
	movsd	%xmm1, (%r9,%rcx,8)
	movsd	(%r8), %xmm1
	addsd	(%rax), %xmm1
	mulsd	%xmm2, %xmm1
	addsd	%xmm0, %xmm1
	movsd	%xmm1, (%rdx,%rcx,8)
.L182:
	popq	%rbx
	.cfi_remember_state
	.cfi_def_cfa_offset 48
	popq	%rbp
	.cfi_def_cfa_offset 40
	popq	%r12
	.cfi_def_cfa_offset 32
	popq	%r13
	.cfi_def_cfa_offset 24
	popq	%r14
	.cfi_def_cfa_offset 16
	popq	%r15
	.cfi_def_cfa_offset 8
	ret
	.p2align 4,,10
	.p2align 3
.L206:
	.cfi_restore_state
	movl	4(%rax), %ebx
	testl	%ebx, %ebx
	je	.L185
	movq	8(%r8,%rdi), %rax
	movzwl	2(%rax), %ecx
	testb	$2, (%rax)
	je	.L207
.L186:
	testw	%cx, %cx
	je	.L191
.L190:
	testl	%ebp, %ebp
	je	.L192
	movl	4(%rax), %ecx
	testl	%ecx, %ecx
	jne	.L182
.L192:
	movq	8(%rsi,%r9), %rcx
	movslq	-28(%rsp), %r8
	movq	8(%rcx,%rdi), %rbx
	movq	-8(%rsi,%r9), %rcx
	addq	$1, %r8
	movq	8(%rcx,%rdi), %rcx
	movsd	(%rbx,%r8,8), %xmm0
	movq	-40(%rsp), %rbx
	subsd	(%rcx,%r8,8), %xmm0
	mulsd	.LC9(%rip), %xmm0
	movq	8(%r11,%rbx), %rcx
	leal	-2(%r14,%r14), %ebx
	movslq	%ebx, %rbx
	movq	(%rcx), %rcx
	leaq	2(%rbx), %r12
	leaq	(%rax,%r8,8), %rbx
	movsd	(%rbx), %xmm1
	movq	16(%rcx), %r15
	leal	-2(%r10,%r10), %ecx
	movslq	%ecx, %r13
	subsd	%xmm0, %xmm1
	addl	$1, %ecx
	movq	(%r15,%r13,8), %r13
	movslq	%ecx, %rcx
	movq	(%r15,%rcx,8), %rcx
	movq	0(%r13,%r12,8), %r13
	movq	(%rcx,%r12,8), %rcx
	movsd	%xmm1, 0(%r13,%r8,8)
	addsd	(%rbx), %xmm0
	movsd	%xmm0, (%rcx,%r8,8)
	testl	%ebp, %ebp
	je	.L188
	jmp	.L182
	.p2align 4,,10
	.p2align 3
.L205:
	movl	4(%rax), %r12d
	testl	%r12d, %r12d
	jns	.L184
	testl	%ebp, %ebp
	je	.L185
	jmp	.L206
	.p2align 4,,10
	.p2align 3
.L187:
	movl	4(%rax), %r8d
	testl	%r8d, %r8d
	js	.L190
	testl	%ebp, %ebp
	je	.L188
	jmp	.L182
	.cfi_endproc
.LFE216:
	.size	refine_face_y, .-refine_face_y
	.p2align 4
	.globl	refine_face
	.type	refine_face, @function
refine_face:
.LFB217:
	.cfi_startproc
	pushq	%rbp
	.cfi_def_cfa_offset 16
	.cfi_offset 6, -16
	movslq	%edx, %rdx
	pushq	%rbx
	.cfi_def_cfa_offset 24
	.cfi_offset 3, -24
	leaq	(%rdx,%rdx,4), %rax
	leaq	(%rdx,%rax,2), %rax
	salq	$4, %rax
	subq	$24, %rsp
	.cfi_def_cfa_offset 48
	movq	_attribute(%rip), %rcx
	movq	%rdi, (%rsp)
	addq	%rcx, %rax
	movl	%esi, 8(%rsp)
	movq	48(%rax), %rbp
	movl	52(%rax), %ebx
	movslq	48(%rax), %rax
	leaq	(%rax,%rax,4), %rdx
	leaq	(%rax,%rdx,2), %rax
	movl	%ebp, %edx
	shrq	$32, %rbp
	salq	$4, %rax
	call	*96(%rcx,%rax)
	movslq	%ebx, %rax
	movq	(%rsp), %rdi
	movl	8(%rsp), %esi
	leaq	(%rax,%rax,4), %rdx
	leaq	(%rax,%rdx,2), %rax
	movq	%rbp, %rdx
	salq	$4, %rax
	addq	_attribute(%rip), %rax
	movq	96(%rax), %rax
	addq	$24, %rsp
	.cfi_def_cfa_offset 24
	popq	%rbx
	.cfi_def_cfa_offset 16
	popq	%rbp
	.cfi_def_cfa_offset 8
	jmp	*%rax
	.cfi_endproc
.LFE217:
	.size	refine_face, .-refine_face
	.p2align 4
	.globl	refine_face_solenoidal
	.type	refine_face_solenoidal, @function
refine_face_solenoidal:
.LFB218:
	.cfi_startproc
	pushq	%r14
	.cfi_def_cfa_offset 16
	.cfi_offset 14, -16
	movq	%rdi, %rax
	pushq	%r13
	.cfi_def_cfa_offset 24
	.cfi_offset 13, -24
	shrq	$32, %rax
	movl	%edi, %r13d
	pushq	%r12
	.cfi_def_cfa_offset 32
	.cfi_offset 12, -32
	movq	%rax, %r12
	pushq	%rbp
	.cfi_def_cfa_offset 40
	.cfi_offset 6, -40
	movslq	%edx, %rbp
	pushq	%rbx
	.cfi_def_cfa_offset 48
	.cfi_offset 3, -48
	movslq	%esi, %rbx
	movl	%ebp, %edx
	movl	%ebx, %esi
	subq	$48, %rsp
	.cfi_def_cfa_offset 96
	movq	%rdi, (%rsp)
	movl	%ebx, 8(%rsp)
	call	refine_face
	movq	grid(%rip), %rax
	movslq	%r13d, %rdi
	movslq	%r12d, %rsi
	movq	24(%rax), %rdx
	movq	(%rdx,%rbx,8), %rax
	movq	(%rax), %rax
	movq	16(%rax), %rax
	movq	(%rax,%rdi,8), %rax
	movq	(%rax,%rsi,8), %rax
	movl	4(%rax), %esi
	testl	%esi, %esi
	jne	.L210
	leaq	0(%rbp,%rbp,4), %rax
	leaq	0(,%rbx,8), %rcx
	pxor	%xmm4, %xmm4
	movq	8(%rdx,%rcx), %rdx
	leaq	0(%rbp,%rax,2), %rax
	leal	-2(%r12,%r12), %ebp
	salq	$4, %rax
	addq	_attribute(%rip), %rax
	leal	-2(%r13,%r13), %ebx
	movslq	%ebp, %r10
	movq	(%rdx), %rdx
	leaq	16(%rsp), %r8
	salq	$3, %r10
	movq	16(%rdx), %r12
	movslq	48(%rax), %rdx
	movslq	52(%rax), %rax
	leaq	8(,%rdx,8), %rdx
	leaq	8(,%rax,8), %rcx
	movslq	%ebx, %rax
	leaq	(%r12,%rax,8), %r9
.L213:
	movq	8(%r9), %r11
	movq	(%r9), %rdi
	xorl	%eax, %eax
	addq	%r10, %r11
	addq	%r10, %rdi
.L212:
	movq	(%rdi,%rax), %r13
	movq	(%r11,%rax), %r14
	movsd	(%r14,%rdx), %xmm0
	subsd	0(%r13,%rdx), %xmm0
	movq	8(%rdi,%rax), %r14
	addsd	%xmm4, %xmm0
	movsd	(%r14,%rcx), %xmm1
	subsd	0(%r13,%rcx), %xmm1
	addsd	%xmm1, %xmm0
	movsd	%xmm0, (%r8,%rax)
	addq	$8, %rax
	cmpq	$16, %rax
	jne	.L212
	addl	$2, %esi
	addq	$8, %r9
	addq	$16, %r8
	cmpl	$4, %esi
	jne	.L213
	movsd	40(%rsp), %xmm3
	movsd	16(%rsp), %xmm5
	movslq	%ebx, %rbx
	movslq	%ebp, %rbp
	movsd	32(%rsp), %xmm6
	movq	8(%r12,%rbx,8), %rdi
	leaq	1(%rbp), %rsi
	movsd	.LC6(%rip), %xmm2
	movapd	%xmm3, %xmm0
	movsd	.LC5(%rip), %xmm7
	movsd	.LC3(%rip), %xmm9
	movapd	%xmm6, %xmm8
	movq	(%rdi,%rsi,8), %rax
	mulsd	%xmm2, %xmm0
	mulsd	%xmm5, %xmm2
	leaq	(%rax,%rdx), %r8
	addq	(%rdi,%rbp,8), %rdx
	addq	%rcx, %rax
	mulsd	%xmm7, %xmm8
	addsd	%xmm5, %xmm0
	movapd	%xmm2, %xmm1
	movsd	(%r8), %xmm2
	addsd	%xmm3, %xmm1
	addsd	%xmm5, %xmm3
	mulsd	%xmm9, %xmm0
	mulsd	%xmm7, %xmm3
	mulsd	%xmm9, %xmm1
	addsd	%xmm8, %xmm0
	addsd	%xmm6, %xmm3
	addsd	%xmm0, %xmm2
	addsd	%xmm8, %xmm1
	subsd	%xmm3, %xmm0
	movsd	%xmm2, (%r8)
	movapd	%xmm3, %xmm2
	subsd	%xmm1, %xmm4
	subsd	%xmm1, %xmm2
	addsd	(%rdx), %xmm2
	movsd	%xmm2, (%rdx)
	movq	(%r12,%rbx,8), %rdx
	movq	(%rdx,%rsi,8), %rbx
	addq	%rcx, %rbx
	addsd	(%rbx), %xmm4
	movsd	%xmm4, (%rbx)
	addsd	(%rax), %xmm0
	movsd	%xmm0, (%rax)
.L210:
	addq	$48, %rsp
	.cfi_def_cfa_offset 48
	popq	%rbx
	.cfi_def_cfa_offset 40
	popq	%rbp
	.cfi_def_cfa_offset 32
	popq	%r12
	.cfi_def_cfa_offset 24
	popq	%r13
	.cfi_def_cfa_offset 16
	popq	%r14
	.cfi_def_cfa_offset 8
	ret
	.cfi_endproc
.LFE218:
	.size	refine_face_solenoidal, .-refine_face_solenoidal
	.p2align 4
	.globl	jet
	.type	jet, @function
jet:
.LFB250:
	.cfi_startproc
	movq	%rdi, %rdx
	movl	$-111, %esi
	movl	$-14, %edi
	xorl	%eax, %eax
	movsd	.LC11(%rip), %xmm2
	movsd	.LC10(%rip), %xmm1
	movl	$1, %ecx
	movsd	.LC12(%rip), %xmm3
	jmp	.L227
	.p2align 4,,10
	.p2align 3
.L234:
	cmpl	$110, %eax
	jg	.L233
	cmpl	$77, %eax
	jg	.L221
	leal	-46(%rax), %r8d
	pxor	%xmm0, %xmm0
	cvtsi2sdl	%r8d, %xmm0
	mulsd	%xmm3, %xmm0
	movsd	%xmm0, (%rdx)
.L222:
	leal	-79(%rax), %r8d
	pxor	%xmm0, %xmm0
	movsd	%xmm1, 8(%rdx)
	cvtsi2sdl	%r8d, %xmm0
	mulsd	%xmm2, %xmm0
.L225:
	movsd	%xmm0, 16(%rdx)
.L228:
	addl	$1, %eax
	addl	$1, %ecx
	addq	$24, %rdx
	addl	$1, %edi
	addl	$1, %esi
.L227:
	cmpl	$46, %eax
	ja	.L234
	leal	-15(%rax), %r8d
	movq	$0x000000000, (%rdx)
	cmpl	$95, %r8d
	jbe	.L235
	movq	$0x000000000, 8(%rdx)
	cmpl	$14, %eax
	jle	.L230
.L232:
	movapd	%xmm1, %xmm0
	jmp	.L225
	.p2align 4,,10
	.p2align 3
.L233:
	pxor	%xmm0, %xmm0
	movq	$0x000000000, 8(%rdx)
	cvtsi2sdl	%esi, %xmm0
	mulsd	%xmm2, %xmm0
	addsd	%xmm1, %xmm0
	movsd	%xmm0, (%rdx)
.L220:
	movq	$0x000000000, 16(%rdx)
	cmpl	$127, %ecx
	jne	.L228
	ret
	.p2align 4,,10
	.p2align 3
.L230:
	pxor	%xmm0, %xmm0
	cvtsi2sdl	%edi, %xmm0
	mulsd	%xmm3, %xmm0
	addsd	%xmm1, %xmm0
	jmp	.L225
.L221:
	movsd	%xmm1, (%rdx)
	cmpl	$78, %eax
	je	.L222
	pxor	%xmm0, %xmm0
	cvtsi2sdl	%esi, %xmm0
	mulsd	%xmm2, %xmm0
	movsd	%xmm0, 8(%rdx)
	jmp	.L220
.L235:
	pxor	%xmm0, %xmm0
	cvtsi2sdl	%edi, %xmm0
	mulsd	%xmm3, %xmm0
	movsd	%xmm0, 8(%rdx)
	jmp	.L232
	.cfi_endproc
.LFE250:
	.size	jet, .-jet
	.p2align 4
	.type	defaults_expr0, @function
defaults_expr0:
.LFB273:
	.cfi_startproc
	movsd	(%rsi), %xmm0
	xorl	%eax, %eax
	movl	$0, (%rdi)
	movsd	%xmm0, (%rsi)
	ret
	.cfi_endproc
.LFE273:
	.size	defaults_expr0, .-defaults_expr0
	.p2align 4
	.type	cleanup_expr0, @function
cleanup_expr0:
.LFB275:
	.cfi_startproc
	movq	.LC13(%rip), %rax
	movq	%rax, (%rsi)
	movl	$1234567890, %eax
	ret
	.cfi_endproc
.LFE275:
	.size	cleanup_expr0, .-cleanup_expr0
	.p2align 4
	.type	_boundary0, @function
_boundary0:
.LFB290:
	.cfi_startproc
	movq	%rdx, -32(%rsp)
	movl	$1, %edx
	movq	%rdi, %rax
	movslq	%r8d, %r8
	movl	%ecx, -24(%rsp)
	movl	%esi, %ecx
	pxor	%xmm0, %xmm0
	movsd	.LC10(%rip), %xmm1
	sall	%cl, %edx
	movq	grid(%rip), %r9
	movl	%esi, -8(%rsp)
	movslq	%esi, %rsi
	cvtsi2sdl	%edx, %xmm0
	movq	%rdi, -16(%rsp)
	movslq	a(%rip), %rdi
	movq	24(%r9), %r9
	movslq	fm(%rip), %rdx
	movslq	alpha(%rip), %rcx
	movq	(%r9,%rsi,8), %rsi
	movq	%rax, %r9
	cltq
	divsd	%xmm0, %xmm1
	leaq	0(,%rax,8), %r10
	sarq	$32, %r9
	movq	(%rsi), %rsi
	movq	16(%rsi), %rsi
	movq	(%rsi,%rax,8), %rax
	movq	(%rax,%r9,8), %rax
	movsd	8(%rax,%r8,8), %xmm0
	mulsd	L0(%rip), %xmm1
	cmpl	$65535, %edi
	jg	.L239
	cmpl	$65535, %edx
	jg	.L240
	movq	8(%rsi,%r10), %rax
	addl	$1, %edi
	addl	$1, %edx
	movslq	%edi, %rdi
	movslq	%edx, %rdx
	movq	(%rax,%r9,8), %rax
	movsd	(%rax,%rdi,8), %xmm2
	mulsd	(%rax,%rdx,8), %xmm2
	cmpl	$65535, %ecx
	jle	.L252
	movq	_constant(%rip), %rax
	divsd	-524288(%rax,%rcx,8), %xmm2
	mulsd	%xmm2, %xmm1
	addsd	%xmm1, %xmm0
	ret
	.p2align 4,,10
	.p2align 3
.L240:
	movq	_constant(%rip), %rax
	movsd	-524288(%rax,%rdx,8), %xmm2
	cmpl	$65535, %ecx
	jle	.L253
	movq	8(%rsi,%r10), %rdx
	addl	$1, %edi
	movslq	%edi, %rdi
	movq	(%rdx,%r9,8), %rdx
	mulsd	(%rdx,%rdi,8), %xmm2
	divsd	-524288(%rax,%rcx,8), %xmm2
	mulsd	%xmm1, %xmm2
	addsd	%xmm2, %xmm0
	ret
	.p2align 4,,10
	.p2align 3
.L239:
	movq	_constant(%rip), %rax
	movsd	-524288(%rax,%rdi,8), %xmm2
	cmpl	$65535, %edx
	jle	.L254
	cmpl	$65535, %ecx
	jle	.L255
	mulsd	-524288(%rax,%rdx,8), %xmm2
	divsd	-524288(%rax,%rcx,8), %xmm2
	mulsd	%xmm1, %xmm2
	addsd	%xmm2, %xmm0
	ret
	.p2align 4,,10
	.p2align 3
.L254:
	cmpl	$65535, %ecx
	jle	.L256
	movq	8(%rsi,%r10), %rsi
	addl	$1, %edx
	movslq	%edx, %rdx
	movq	(%rsi,%r9,8), %rsi
	mulsd	(%rsi,%rdx,8), %xmm2
	divsd	-524288(%rax,%rcx,8), %xmm2
	mulsd	%xmm1, %xmm2
	addsd	%xmm2, %xmm0
	ret
	.p2align 4,,10
	.p2align 3
.L252:
	addl	$1, %ecx
	movslq	%ecx, %rcx
	divsd	(%rax,%rcx,8), %xmm2
	mulsd	%xmm2, %xmm1
	addsd	%xmm1, %xmm0
	ret
	.p2align 4,,10
	.p2align 3
.L256:
	movq	8(%rsi,%r10), %rax
	addl	$1, %edx
	movslq	%edx, %rdx
	movq	(%rax,%r9,8), %rax
	mulsd	(%rax,%rdx,8), %xmm2
.L251:
	addl	$1, %ecx
	movslq	%ecx, %rcx
	divsd	(%rax,%rcx,8), %xmm2
	mulsd	%xmm1, %xmm2
	addsd	%xmm2, %xmm0
	ret
	.p2align 4,,10
	.p2align 3
.L253:
	movq	8(%rsi,%r10), %rax
	addl	$1, %edi
	movslq	%edi, %rdi
	movq	(%rax,%r9,8), %rax
	mulsd	(%rax,%rdi,8), %xmm2
	jmp	.L251
	.p2align 4,,10
	.p2align 3
.L255:
	mulsd	-524288(%rax,%rdx,8), %xmm2
	movq	8(%rsi,%r10), %rax
	addl	$1, %ecx
	movslq	%ecx, %rcx
	movq	(%rax,%r9,8), %rax
	divsd	(%rax,%rcx,8), %xmm2
	mulsd	%xmm1, %xmm2
	addsd	%xmm2, %xmm0
	ret
	.cfi_endproc
.LFE290:
	.size	_boundary0, .-_boundary0
	.p2align 4
	.type	_boundary0_homogeneous, @function
_boundary0_homogeneous:
.LFB291:
	.cfi_startproc
	movq	grid(%rip), %rax
	movslq	%esi, %rsi
	movslq	%edi, %rdx
	movslq	%r8d, %r8
	sarq	$32, %rdi
	movq	24(%rax), %rax
	movq	(%rax,%rsi,8), %rax
	movq	(%rax), %rax
	movq	16(%rax), %rax
	movq	(%rax,%rdx,8), %rax
	movq	(%rax,%rdi,8), %rax
	movsd	8(%rax,%r8,8), %xmm0
	ret
	.cfi_endproc
.LFE291:
	.size	_boundary0_homogeneous, .-_boundary0_homogeneous
	.p2align 4
	.type	_boundary1, @function
_boundary1:
.LFB292:
	.cfi_startproc
	movq	%rdx, -32(%rsp)
	movl	$1, %edx
	movq	%rdi, %rax
	movslq	%r8d, %r8
	movl	%ecx, -24(%rsp)
	movl	%esi, %ecx
	pxor	%xmm0, %xmm0
	movsd	.LC10(%rip), %xmm1
	sall	%cl, %edx
	movq	grid(%rip), %r9
	movl	%esi, -8(%rsp)
	movslq	%esi, %rsi
	cvtsi2sdl	%edx, %xmm0
	movq	%rdi, -16(%rsp)
	movslq	a(%rip), %rdi
	movq	24(%r9), %r9
	movslq	fm(%rip), %rdx
	movslq	alpha(%rip), %rcx
	movq	(%r9,%rsi,8), %rsi
	movslq	%eax, %r9
	sarq	$32, %rax
	divsd	%xmm0, %xmm1
	movq	(%rsi), %rsi
	movq	16(%rsi), %rsi
	movq	(%rsi,%r9,8), %rsi
	movq	(%rsi,%rax,8), %rax
	movsd	8(%rax,%r8,8), %xmm0
	mulsd	L0(%rip), %xmm1
	cmpl	$65535, %edi
	jg	.L259
	cmpl	$65535, %edx
	jg	.L260
	addl	$1, %edi
	addl	$1, %edx
	movslq	%edi, %rdi
	movslq	%edx, %rdx
	movsd	(%rax,%rdi,8), %xmm2
	mulsd	(%rax,%rdx,8), %xmm2
	cmpl	$65535, %ecx
	jle	.L272
	movq	_constant(%rip), %rax
	divsd	-524288(%rax,%rcx,8), %xmm2
	mulsd	%xmm2, %xmm1
	subsd	%xmm1, %xmm0
	ret
	.p2align 4,,10
	.p2align 3
.L260:
	movq	_constant(%rip), %rsi
	movsd	-524288(%rsi,%rdx,8), %xmm2
	cmpl	$65535, %ecx
	jle	.L273
	addl	$1, %edi
	movslq	%edi, %rdi
	mulsd	(%rax,%rdi,8), %xmm2
	divsd	-524288(%rsi,%rcx,8), %xmm2
	mulsd	%xmm1, %xmm2
	subsd	%xmm2, %xmm0
	ret
	.p2align 4,,10
	.p2align 3
.L259:
	movq	_constant(%rip), %rsi
	movsd	-524288(%rsi,%rdi,8), %xmm2
	cmpl	$65535, %edx
	jle	.L274
	cmpl	$65535, %ecx
	jle	.L275
	mulsd	-524288(%rsi,%rdx,8), %xmm2
	divsd	-524288(%rsi,%rcx,8), %xmm2
	mulsd	%xmm1, %xmm2
	subsd	%xmm2, %xmm0
	ret
	.p2align 4,,10
	.p2align 3
.L274:
	addl	$1, %edx
	movslq	%edx, %rdx
	mulsd	(%rax,%rdx,8), %xmm2
	cmpl	$65535, %ecx
	jle	.L271
	divsd	-524288(%rsi,%rcx,8), %xmm2
	mulsd	%xmm1, %xmm2
	subsd	%xmm2, %xmm0
	ret
	.p2align 4,,10
	.p2align 3
.L273:
	addl	$1, %edi
	movslq	%edi, %rdi
	mulsd	(%rax,%rdi,8), %xmm2
.L271:
	addl	$1, %ecx
	movslq	%ecx, %rcx
	divsd	(%rax,%rcx,8), %xmm2
	mulsd	%xmm1, %xmm2
	subsd	%xmm2, %xmm0
	ret
	.p2align 4,,10
	.p2align 3
.L272:
	addl	$1, %ecx
	movslq	%ecx, %rcx
	divsd	(%rax,%rcx,8), %xmm2
	mulsd	%xmm2, %xmm1
	subsd	%xmm1, %xmm0
	ret
	.p2align 4,,10
	.p2align 3
.L275:
	mulsd	-524288(%rsi,%rdx,8), %xmm2
	jmp	.L271
	.cfi_endproc
.LFE292:
	.size	_boundary1, .-_boundary1
	.p2align 4
	.type	_boundary2, @function
_boundary2:
.LFB294:
	.cfi_startproc
	movq	%rdx, -32(%rsp)
	movl	$1, %edx
	movq	%rdi, %rax
	movslq	%r8d, %r8
	movl	%ecx, -24(%rsp)
	movl	%esi, %ecx
	pxor	%xmm0, %xmm0
	movsd	.LC10(%rip), %xmm1
	sall	%cl, %edx
	movl	%esi, -8(%rsp)
	movslq	%esi, %rsi
	movslq	%eax, %rcx
	cvtsi2sdl	%edx, %xmm0
	sarq	$32, %rax
	movq	grid(%rip), %rdx
	cmpl	$65535, a(%rip)
	movq	%rdi, -16(%rsp)
	movl	fm(%rip), %r11d
	movq	24(%rdx), %rdx
	movl	alpha(%rip), %r10d
	movslq	a+4(%rip), %r9
	movslq	fm+4(%rip), %rdi
	divsd	%xmm0, %xmm1
	movq	(%rdx,%rsi,8), %rdx
	leaq	0(,%rax,8), %rsi
	movq	(%rdx), %rdx
	movq	16(%rdx), %rdx
	movq	(%rdx,%rcx,8), %rdx
	movslq	alpha+4(%rip), %rcx
	movq	(%rdx,%rax,8), %rax
	movsd	8(%rax,%r8,8), %xmm0
	mulsd	L0(%rip), %xmm1
	jg	.L277
	cmpl	$65535, %r11d
	jg	.L278
	movq	8(%rdx,%rsi), %rax
	movsd	8(%rax,%r9,8), %xmm2
	mulsd	8(%rax,%rdi,8), %xmm2
	cmpl	$65535, %r10d
	jle	.L289
	movq	_constant(%rip), %rax
	divsd	-524288(%rax,%rcx,8), %xmm2
	mulsd	%xmm2, %xmm1
	addsd	%xmm1, %xmm0
	ret
	.p2align 4,,10
	.p2align 3
.L278:
	movq	_constant(%rip), %rax
	movsd	-524288(%rax,%rdi,8), %xmm2
	cmpl	$65535, %r10d
	jle	.L290
	movq	8(%rdx,%rsi), %rdx
	mulsd	8(%rdx,%r9,8), %xmm2
	divsd	-524288(%rax,%rcx,8), %xmm2
	mulsd	%xmm1, %xmm2
	addsd	%xmm2, %xmm0
	ret
	.p2align 4,,10
	.p2align 3
.L277:
	movq	_constant(%rip), %rax
	movsd	-524288(%rax,%r9,8), %xmm2
	cmpl	$65535, %r11d
	jle	.L291
	cmpl	$65535, %r10d
	jle	.L292
	mulsd	-524288(%rax,%rdi,8), %xmm2
	divsd	-524288(%rax,%rcx,8), %xmm2
	mulsd	%xmm1, %xmm2
	addsd	%xmm2, %xmm0
	ret
	.p2align 4,,10
	.p2align 3
.L291:
	cmpl	$65535, %r10d
	jle	.L293
	movq	8(%rdx,%rsi), %rdx
	mulsd	8(%rdx,%rdi,8), %xmm2
	divsd	-524288(%rax,%rcx,8), %xmm2
	mulsd	%xmm1, %xmm2
	addsd	%xmm2, %xmm0
	ret
	.p2align 4,,10
	.p2align 3
.L289:
	divsd	8(%rax,%rcx,8), %xmm2
	mulsd	%xmm2, %xmm1
	addsd	%xmm1, %xmm0
	ret
	.p2align 4,,10
	.p2align 3
.L293:
	movq	8(%rdx,%rsi), %rax
	mulsd	8(%rax,%rdi,8), %xmm2
	divsd	8(%rax,%rcx,8), %xmm2
	mulsd	%xmm1, %xmm2
	addsd	%xmm2, %xmm0
	ret
	.p2align 4,,10
	.p2align 3
.L290:
	movq	8(%rdx,%rsi), %rax
	mulsd	8(%rax,%r9,8), %xmm2
	divsd	8(%rax,%rcx,8), %xmm2
	mulsd	%xmm1, %xmm2
	addsd	%xmm2, %xmm0
	ret
	.p2align 4,,10
	.p2align 3
.L292:
	mulsd	-524288(%rax,%rdi,8), %xmm2
	movq	8(%rdx,%rsi), %rax
	divsd	8(%rax,%rcx,8), %xmm2
	mulsd	%xmm1, %xmm2
	addsd	%xmm2, %xmm0
	ret
	.cfi_endproc
.LFE294:
	.size	_boundary2, .-_boundary2
	.p2align 4
	.type	_boundary3, @function
_boundary3:
.LFB296:
	.cfi_startproc
	movq	%rdx, -32(%rsp)
	movl	$1, %edx
	movq	%rdi, %rax
	movslq	%r8d, %r8
	movl	%ecx, -24(%rsp)
	movl	%esi, %ecx
	pxor	%xmm0, %xmm0
	movsd	.LC10(%rip), %xmm1
	sall	%cl, %edx
	movl	%esi, -8(%rsp)
	movslq	%esi, %rsi
	movl	fm(%rip), %r10d
	cvtsi2sdl	%edx, %xmm0
	movq	grid(%rip), %rdx
	movq	%rdi, -16(%rsp)
	movl	alpha(%rip), %r9d
	movslq	a+4(%rip), %rdi
	movq	24(%rdx), %rdx
	movslq	fm+4(%rip), %rcx
	divsd	%xmm0, %xmm1
	movq	(%rdx,%rsi,8), %rdx
	movslq	%eax, %rsi
	sarq	$32, %rax
	cmpl	$65535, a(%rip)
	movq	(%rdx), %rdx
	movq	16(%rdx), %rdx
	movq	(%rdx,%rsi,8), %rdx
	movq	(%rdx,%rax,8), %rax
	movslq	alpha+4(%rip), %rdx
	movsd	8(%rax,%r8,8), %xmm0
	mulsd	L0(%rip), %xmm1
	jg	.L295
	cmpl	$65535, %r10d
	jg	.L296
	movsd	8(%rax,%rdi,8), %xmm2
	mulsd	8(%rax,%rcx,8), %xmm2
	cmpl	$65535, %r9d
	jle	.L308
	movq	_constant(%rip), %rax
	divsd	-524288(%rax,%rdx,8), %xmm2
	mulsd	%xmm2, %xmm1
	subsd	%xmm1, %xmm0
	ret
	.p2align 4,,10
	.p2align 3
.L296:
	movq	_constant(%rip), %rsi
	movsd	-524288(%rsi,%rcx,8), %xmm2
	cmpl	$65535, %r9d
	jle	.L309
	mulsd	8(%rax,%rdi,8), %xmm2
	divsd	-524288(%rsi,%rdx,8), %xmm2
	mulsd	%xmm1, %xmm2
	subsd	%xmm2, %xmm0
	ret
	.p2align 4,,10
	.p2align 3
.L295:
	movq	_constant(%rip), %rsi
	movsd	-524288(%rsi,%rdi,8), %xmm2
	cmpl	$65535, %r10d
	jle	.L310
	cmpl	$65535, %r9d
	jle	.L311
	mulsd	-524288(%rsi,%rcx,8), %xmm2
	divsd	-524288(%rsi,%rdx,8), %xmm2
	mulsd	%xmm1, %xmm2
	subsd	%xmm2, %xmm0
	ret
	.p2align 4,,10
	.p2align 3
.L310:
	mulsd	8(%rax,%rcx,8), %xmm2
	cmpl	$65535, %r9d
	jle	.L307
	divsd	-524288(%rsi,%rdx,8), %xmm2
	mulsd	%xmm1, %xmm2
	subsd	%xmm2, %xmm0
	ret
	.p2align 4,,10
	.p2align 3
.L308:
	divsd	8(%rax,%rdx,8), %xmm2
	mulsd	%xmm2, %xmm1
	subsd	%xmm1, %xmm0
	ret
	.p2align 4,,10
	.p2align 3
.L309:
	mulsd	8(%rax,%rdi,8), %xmm2
.L307:
	divsd	8(%rax,%rdx,8), %xmm2
	mulsd	%xmm1, %xmm2
	subsd	%xmm2, %xmm0
	ret
	.p2align 4,,10
	.p2align 3
.L311:
	mulsd	-524288(%rsi,%rcx,8), %xmm2
	divsd	8(%rax,%rdx,8), %xmm2
	mulsd	%xmm1, %xmm2
	subsd	%xmm2, %xmm0
	ret
	.cfi_endproc
.LFE296:
	.size	_boundary3, .-_boundary3
	.p2align 4
	.type	set_dtmax_expr0, @function
set_dtmax_expr0:
.LFB304:
	.cfi_startproc
	movl	(%rdi), %eax
	movsd	(%rsi), %xmm0
	leal	1(%rax), %edx
	movl	%edx, (%rdi)
	movsd	%xmm0, (%rsi)
	ret
	.cfi_endproc
.LFE304:
	.size	set_dtmax_expr0, .-set_dtmax_expr0
	.p2align 4
	.type	set_dtmax, @function
set_dtmax:
.LFB305:
	.cfi_startproc
	movsd	DT(%rip), %xmm0
	xorl	%eax, %eax
	movsd	%xmm0, dtmax(%rip)
	ret
	.cfi_endproc
.LFE305:
	.size	set_dtmax, .-set_dtmax
	.p2align 4
	.type	vof, @function
vof:
.LFB309:
	.cfi_startproc
	xorl	%eax, %eax
	ret
	.cfi_endproc
.LFE309:
	.size	vof, .-vof
	.p2align 4
	.type	alpha_refine, @function
alpha_refine:
.LFB340:
	.cfi_startproc
	movl	%esi, -8(%rsp)
	movslq	%esi, %rsi
	movq	%rdi, %rax
	movslq	%edi, %r11
	movq	grid(%rip), %rcx
	shrq	$32, %rax
	movq	%rdi, -16(%rsp)
	leal	-2(%r11,%r11), %r9d
	movq	%rax, %r10
	movslq	%edx, %rax
	pxor	%xmm3, %xmm3
	movsd	.LC5(%rip), %xmm5
	movq	24(%rcx), %r8
	leaq	(%rax,%rax,4), %rdx
	movslq	%r10d, %rdi
	pxor	%xmm2, %xmm2
	leaq	(%rax,%rdx,2), %rdx
	addq	$1, %rax
	movq	(%r8,%rsi,8), %rcx
	salq	$4, %rdx
	addq	_attribute(%rip), %rdx
	movq	(%rcx), %rcx
	movq	16(%rcx), %rcx
	movq	(%rcx,%r11,8), %rcx
	movq	(%rcx,%rdi,8), %rdi
	leaq	0(,%rax,8), %rcx
	movsd	(%rdi,%rax,8), %xmm4
	movslq	144(%rdx), %rax
	movsd	8(%rdi,%rax,8), %xmm6
	movslq	148(%rdx), %rax
	addsd	%xmm4, %xmm4
	movq	8(%r8,%rsi,8), %rdx
	movslq	%r9d, %rsi
	movsd	8(%rdi,%rax,8), %xmm0
	leal	-2(%r10,%r10), %eax
	leal	2(%r9), %r10d
	movq	(%rdx), %rdx
	movq	16(%rdx), %rdx
	leaq	(%rdx,%rsi,8), %rdi
	movl	$-1, %edx
	movslq	%eax, %rsi
	cvtsi2sdl	%edx, %xmm3
	leal	1(%rax), %edx
	addl	$3, %eax
	salq	$3, %rsi
	movl	%eax, %r8d
	movslq	%edx, %rdx
	shrl	$31, %r8d
	salq	$3, %rdx
	addl	%r8d, %eax
	mulsd	%xmm0, %xmm3
	andl	$1, %eax
	subl	%r8d, %eax
	xorl	%r8d, %r8d
	leal	-1(%rax,%rax), %eax
	cvtsi2sdl	%eax, %xmm2
	mulsd	%xmm5, %xmm3
	mulsd	%xmm0, %xmm2
	mulsd	%xmm5, %xmm2
.L316:
	movl	%r10d, %r9d
	pxor	%xmm0, %xmm0
	movapd	%xmm4, %xmm1
	movq	(%rdi,%r8,8), %r11
	shrl	$31, %r9d
	leal	(%r9,%r8), %eax
	andl	$1, %eax
	subl	%r9d, %eax
	leal	-1(%rax,%rax), %eax
	cvtsi2sdl	%eax, %xmm0
	movq	(%r11,%rsi), %rax
	mulsd	%xmm6, %xmm0
	mulsd	%xmm5, %xmm0
	subsd	%xmm0, %xmm1
	movapd	%xmm1, %xmm0
	subsd	%xmm2, %xmm1
	subsd	%xmm3, %xmm0
	movsd	%xmm0, (%rax,%rcx)
	movq	(%r11,%rdx), %rax
	movsd	%xmm1, (%rax,%rcx)
	cmpq	$1, %r8
	jne	.L317
	ret
	.p2align 4,,10
	.p2align 3
.L317:
	movl	$1, %r8d
	jmp	.L316
	.cfi_endproc
.LFE340:
	.size	alpha_refine, .-alpha_refine
	.p2align 4
	.type	vof_concentration_gradient_x, @function
vof_concentration_gradient_x:
.LFB348:
	.cfi_startproc
	subq	$40, %rsp
	.cfi_def_cfa_offset 48
	movq	%rdi, %rax
	movslq	%esi, %r8
	movslq	%edx, %rdx
	movq	%rdi, 16(%rsp)
	movq	grid(%rip), %rdi
	movslq	%eax, %r9
	sarq	$32, %rax
	leaq	0(,%r9,8), %r10
	addq	$1, %rdx
	movl	%esi, 24(%rsp)
	movq	24(%rdi), %rdi
	movq	(%rdi,%r8,8), %rdi
	movq	(%rdi), %rdi
	movq	16(%rdi), %rdi
	movq	-8(%rdi,%r10), %r8
	movq	(%rdi,%r9,8), %r9
	movq	8(%rdi,%r10), %rdi
	movq	(%r8,%rax,8), %r8
	movq	(%r9,%rax,8), %r9
	movq	(%rdi,%rax,8), %rdi
	movslq	%ecx, %rax
	movsd	(%r8,%rdx,8), %xmm6
	movsd	(%r9,%rdx,8), %xmm3
	movsd	(%rdi,%rdx,8), %xmm4
	leaq	(%rax,%rax,4), %rdx
	leaq	(%rax,%rdx,2), %rdx
	salq	$4, %rdx
	addq	_attribute(%rip), %rdx
	cmpb	$0, 140(%rdx)
	je	.L319
	movsd	.LC10(%rip), %xmm0
	movapd	%xmm0, %xmm7
	subsd	%xmm6, %xmm7
	movapd	%xmm7, %xmm6
	movapd	%xmm0, %xmm7
	subsd	%xmm4, %xmm0
	subsd	%xmm3, %xmm7
	movapd	%xmm0, %xmm4
	movapd	%xmm7, %xmm3
.L319:
	movsd	.LC5(%rip), %xmm1
	pxor	%xmm0, %xmm0
	comisd	%xmm1, %xmm3
	jb	.L318
	movq	16(%rdx), %r10
	pxor	%xmm0, %xmm0
	cmpq	$zero, %r10
	je	.L318
	movl	$1, %edx
	movl	%esi, %ecx
	pxor	%xmm2, %xmm2
	movsd	.LC10(%rip), %xmm5
	sall	%cl, %edx
	comisd	%xmm1, %xmm4
	cvtsi2sdl	%edx, %xmm2
	divsd	%xmm2, %xmm5
	mulsd	L0(%rip), %xmm5
	jb	.L337
	addq	$1, %rax
	comisd	%xmm1, %xmm6
	movsd	(%rdi,%rax,8), %xmm2
	divsd	%xmm4, %xmm2
	jb	.L338
	movsd	(%r8,%rax,8), %xmm0
	divsd	%xmm6, %xmm0
	testq	%r10, %r10
	je	.L326
	movsd	(%r9,%rax,8), %xmm1
	movsd	%xmm5, 8(%rsp)
	divsd	%xmm3, %xmm1
	call	*%r10
	movsd	8(%rsp), %xmm5
	divsd	%xmm5, %xmm0
.L318:
	addq	$40, %rsp
	.cfi_remember_state
	.cfi_def_cfa_offset 8
	ret
	.p2align 4,,10
	.p2align 3
.L337:
	.cfi_restore_state
	comisd	%xmm1, %xmm6
	jb	.L318
	addq	$1, %rax
	movsd	(%r9,%rax,8), %xmm0
	movsd	(%r8,%rax,8), %xmm1
	divsd	%xmm3, %xmm0
	divsd	%xmm6, %xmm1
	subsd	%xmm1, %xmm0
	divsd	%xmm5, %xmm0
	jmp	.L318
	.p2align 4,,10
	.p2align 3
.L338:
	movsd	(%r9,%rax,8), %xmm0
	divsd	%xmm3, %xmm0
	subsd	%xmm0, %xmm2
	divsd	%xmm5, %xmm2
	movapd	%xmm2, %xmm0
	jmp	.L318
	.p2align 4,,10
	.p2align 3
.L326:
	subsd	%xmm0, %xmm2
	addsd	%xmm5, %xmm5
	divsd	%xmm5, %xmm2
	movapd	%xmm2, %xmm0
	jmp	.L318
	.cfi_endproc
.LFE348:
	.size	vof_concentration_gradient_x, .-vof_concentration_gradient_x
	.p2align 4
	.type	vof_concentration_gradient_y, @function
vof_concentration_gradient_y:
.LFB349:
	.cfi_startproc
	subq	$40, %rsp
	.cfi_def_cfa_offset 48
	movq	%rdi, %rax
	movslq	%esi, %r8
	movslq	%edx, %rdx
	movq	%rdi, 16(%rsp)
	movq	grid(%rip), %rdi
	addq	$1, %rdx
	movl	%esi, 24(%rsp)
	movq	24(%rdi), %rdi
	movq	(%rdi,%r8,8), %rdi
	movslq	%eax, %r8
	sarq	$32, %rax
	leaq	0(,%rax,8), %r10
	movq	(%rdi), %rdi
	movq	16(%rdi), %rdi
	movq	(%rdi,%r8,8), %rdi
	movq	(%rdi,%rax,8), %r9
	movq	-8(%rdi,%r10), %r8
	movslq	%ecx, %rax
	movq	8(%rdi,%r10), %rdi
	movsd	(%r8,%rdx,8), %xmm6
	movsd	(%r9,%rdx,8), %xmm3
	movsd	(%rdi,%rdx,8), %xmm4
	leaq	(%rax,%rax,4), %rdx
	leaq	(%rax,%rdx,2), %rdx
	salq	$4, %rdx
	addq	_attribute(%rip), %rdx
	cmpb	$0, 140(%rdx)
	je	.L341
	movsd	.LC10(%rip), %xmm0
	movapd	%xmm0, %xmm7
	subsd	%xmm6, %xmm7
	movapd	%xmm7, %xmm6
	movapd	%xmm0, %xmm7
	subsd	%xmm4, %xmm0
	subsd	%xmm3, %xmm7
	movapd	%xmm0, %xmm4
	movapd	%xmm7, %xmm3
.L341:
	movsd	.LC5(%rip), %xmm1
	pxor	%xmm0, %xmm0
	comisd	%xmm1, %xmm3
	jb	.L340
	movq	16(%rdx), %r10
	pxor	%xmm0, %xmm0
	cmpq	$zero, %r10
	je	.L340
	movl	$1, %edx
	movl	%esi, %ecx
	pxor	%xmm2, %xmm2
	movsd	.LC10(%rip), %xmm5
	sall	%cl, %edx
	comisd	%xmm1, %xmm4
	cvtsi2sdl	%edx, %xmm2
	divsd	%xmm2, %xmm5
	mulsd	L0(%rip), %xmm5
	jb	.L359
	addq	$1, %rax
	comisd	%xmm1, %xmm6
	movsd	(%rdi,%rax,8), %xmm2
	divsd	%xmm4, %xmm2
	jb	.L360
	movsd	(%r8,%rax,8), %xmm0
	divsd	%xmm6, %xmm0
	testq	%r10, %r10
	je	.L348
	movsd	(%r9,%rax,8), %xmm1
	movsd	%xmm5, 8(%rsp)
	divsd	%xmm3, %xmm1
	call	*%r10
	movsd	8(%rsp), %xmm5
	divsd	%xmm5, %xmm0
.L340:
	addq	$40, %rsp
	.cfi_remember_state
	.cfi_def_cfa_offset 8
	ret
	.p2align 4,,10
	.p2align 3
.L359:
	.cfi_restore_state
	comisd	%xmm1, %xmm6
	jb	.L340
	addq	$1, %rax
	movsd	(%r9,%rax,8), %xmm0
	movsd	(%r8,%rax,8), %xmm1
	divsd	%xmm3, %xmm0
	divsd	%xmm6, %xmm1
	subsd	%xmm1, %xmm0
	divsd	%xmm5, %xmm0
	jmp	.L340
	.p2align 4,,10
	.p2align 3
.L360:
	movsd	(%r9,%rax,8), %xmm0
	divsd	%xmm3, %xmm0
	subsd	%xmm0, %xmm2
	divsd	%xmm5, %xmm2
	movapd	%xmm2, %xmm0
	jmp	.L340
	.p2align 4,,10
	.p2align 3
.L348:
	subsd	%xmm0, %xmm2
	addsd	%xmm5, %xmm5
	divsd	%xmm5, %xmm2
	movapd	%xmm2, %xmm0
	jmp	.L340
	.cfi_endproc
.LFE349:
	.size	vof_concentration_gradient_y, .-vof_concentration_gradient_y
	.p2align 4
	.type	vof_concentration_refine, @function
vof_concentration_refine:
.LFB352:
	.cfi_startproc
	movq	%rdi, %rax
	pushq	%r15
	.cfi_def_cfa_offset 16
	.cfi_offset 15, -16
	movl	%esi, %ecx
	pxor	%xmm1, %xmm1
	shrq	$32, %rax
	pushq	%r14
	.cfi_def_cfa_offset 24
	.cfi_offset 14, -24
	movl	%edi, %r15d
	pushq	%r13
	.cfi_def_cfa_offset 32
	.cfi_offset 13, -32
	movq	%rax, %r14
	movl	$1, %eax
	pushq	%r12
	.cfi_def_cfa_offset 40
	.cfi_offset 12, -40
	sall	%cl, %eax
	pushq	%rbp
	.cfi_def_cfa_offset 48
	.cfi_offset 6, -48
	cvtsi2sdl	%eax, %xmm1
	movslq	%edx, %rbp
	pushq	%rbx
	.cfi_def_cfa_offset 56
	.cfi_offset 3, -56
	leaq	0(%rbp,%rbp,4), %rdx
	movq	%rbp, %r12
	leaq	0(%rbp,%rdx,2), %r13
	salq	$4, %r13
	subq	$104, %rsp
	.cfi_def_cfa_offset 160
	movsd	.LC10(%rip), %xmm2
	movq	grid(%rip), %rdx
	movq	%rdi, 80(%rsp)
	movq	_attribute(%rip), %rdi
	movapd	%xmm2, %xmm0
	movslq	cm(%rip), %rax
	movl	%esi, 88(%rsp)
	divsd	%xmm1, %xmm0
	movsd	L0(%rip), %xmm1
	addq	%r13, %rdi
	movq	24(%rdx), %rsi
	movl	136(%rdi), %edx
	mulsd	%xmm0, %xmm1
	cmpl	$65535, %eax
	jg	.L363
	movslq	%ecx, %rbx
	movslq	%r15d, %r9
	movslq	%r14d, %r8
	addl	$1, %eax
	movq	(%rsi,%rbx,8), %rcx
	cltq
	pxor	%xmm0, %xmm0
	leaq	0(,%rbx,8), %r10
	movq	(%rcx), %rcx
	movq	16(%rcx), %rcx
	movq	(%rcx,%r9,8), %rcx
	movq	(%rcx,%r8,8), %rcx
	ucomisd	(%rcx,%rax,8), %xmm0
	jp	.L393
	je	.L364
.L393:
	movslq	%edx, %rax
	addq	$1, %rax
	cmpb	$0, 140(%rdi)
	movsd	(%rcx,%rax,8), %xmm3
	leaq	0(,%rax,8), %r11
	je	.L398
	comisd	%xmm2, %xmm3
	jnb	.L364
.L367:
	movq	80(%rsp), %rdi
	movl	88(%rsp), %esi
	movl	%r12d, %ecx
	movl	%edx, 24(%rsp)
	movq	%rax, 64(%rsp)
	addq	$1, %rbp
	movq	%r8, 56(%rsp)
	movq	%r9, 48(%rsp)
	movq	%r11, 40(%rsp)
	movq	%r10, 32(%rsp)
	movsd	%xmm1, 8(%rsp)
	call	vof_concentration_gradient_x
	movl	24(%rsp), %edx
	movl	88(%rsp), %esi
	movl	%r12d, %ecx
	movsd	8(%rsp), %xmm1
	movapd	%xmm0, %xmm6
	movq	80(%rsp), %rdi
	mulsd	%xmm1, %xmm6
	movsd	%xmm1, 16(%rsp)
	movsd	%xmm6, 8(%rsp)
	call	vof_concentration_gradient_y
	movq	48(%rsp), %r9
	movsd	16(%rsp), %xmm1
	movq	_attribute(%rip), %rdx
	movq	56(%rsp), %r8
	movq	.LC10(%rip), %rsi
	mulsd	%xmm0, %xmm1
	movsd	8(%rsp), %xmm6
	movzbl	140(%rdx,%r13), %r12d
	movq	grid(%rip), %rdx
	leaq	0(,%rbp,8), %r13
	movq	32(%rsp), %r10
	movq	40(%rsp), %r11
	movq	%rsi, %xmm2
	movq	24(%rdx), %rdx
	testb	%r12b, %r12b
	movq	64(%rsp), %rax
	movq	(%rdx,%rbx,8), %rcx
	movq	(%rcx), %rcx
	movq	16(%rcx), %rcx
	movq	(%rcx,%r9,8), %rcx
	movq	(%rcx,%r8,8), %rcx
	je	.L370
	movq	%rsi, %xmm0
	subsd	(%rcx,%rax,8), %xmm0
	movsd	(%rcx,%rbp,8), %xmm5
	divsd	%xmm0, %xmm5
.L371:
	movq	8(%rdx,%r10), %rdx
	movslq	cm(%rip), %rax
	leal	-2(%r15,%r15), %r8d
	movsd	.LC14(%rip), %xmm4
	movq	(%rdx), %rdx
	addq	$1, %rax
	mulsd	(%rcx,%rax,8), %xmm4
	leaq	0(,%rax,8), %rbx
	leal	-2(%r14,%r14), %eax
	movq	16(%rdx), %rsi
	movslq	%r8d, %rdx
	leal	4(%rax), %r15d
	leaq	(%rsi,%rdx,8), %rbp
	movq	%rsi, 8(%rsp)
	movslq	%eax, %rdx
	leal	2(%r8), %esi
	movl	%esi, 16(%rsp)
	leaq	0(,%rdx,8), %rsi
	movq	%rsi, 24(%rsp)
	leal	2(%rax), %esi
	movl	%esi, 32(%rsp)
.L375:
	leal	2(%r8), %eax
	pxor	%xmm7, %xmm7
	movq	8(%rsp), %rsi
	movq	0(%rbp), %r10
	movl	%eax, %edx
	movq	24(%rsp), %rdi
	shrl	$31, %edx
	addl	%edx, %eax
	andl	$1, %eax
	subl	%edx, %eax
	leal	-1(%rax,%rax), %edx
	movl	%r8d, %eax
	cvtsi2sdl	%edx, %xmm7
	subl	%edx, %eax
	cltq
	movq	(%rsi,%rax,8), %r14
	movl	32(%rsp), %eax
	mulsd	%xmm6, %xmm7
.L374:
	movl	%eax, %ecx
	movq	(%r14,%rdi), %rsi
	pxor	%xmm0, %xmm0
	shrl	$31, %ecx
	leal	(%rax,%rcx), %edx
	andl	$1, %edx
	subl	%ecx, %edx
	movq	(%r10,%rdi), %rcx
	leal	-1(%rdx,%rdx), %r9d
	cvtsi2sdl	%r9d, %xmm0
	leaq	(%rcx,%r13), %rdx
	addq	%r11, %rcx
	movsd	%xmm5, (%rdx)
	movsd	(%rsi,%rbx), %xmm3
	leal	-2(%rax), %esi
	subl	%r9d, %esi
	mulsd	%xmm7, %xmm3
	movslq	%esi, %rsi
	movq	(%r10,%rsi,8), %rsi
	mulsd	%xmm1, %xmm0
	divsd	%xmm4, %xmm3
	addsd	%xmm5, %xmm3
	movsd	%xmm3, (%rdx)
	mulsd	(%rsi,%rbx), %xmm0
	divsd	%xmm4, %xmm0
	addsd	%xmm3, %xmm0
	movsd	%xmm0, (%rdx)
	testb	%r12b, %r12b
	je	.L372
	movapd	%xmm2, %xmm3
	subsd	(%rcx), %xmm3
.L373:
	mulsd	%xmm3, %xmm0
	addl	$1, %eax
	addq	$8, %rdi
	movsd	%xmm0, (%rdx)
	cmpl	%eax, %r15d
	jne	.L374
	addl	$1, %r8d
	addq	$8, %rbp
	cmpl	16(%rsp), %r8d
	jne	.L375
.L362:
	addq	$104, %rsp
	.cfi_remember_state
	.cfi_def_cfa_offset 56
	popq	%rbx
	.cfi_def_cfa_offset 48
	popq	%rbp
	.cfi_def_cfa_offset 40
	popq	%r12
	.cfi_def_cfa_offset 32
	popq	%r13
	.cfi_def_cfa_offset 24
	popq	%r14
	.cfi_def_cfa_offset 16
	popq	%r15
	.cfi_def_cfa_offset 8
	ret
	.p2align 4,,10
	.p2align 3
.L363:
	.cfi_restore_state
	movq	_constant(%rip), %r8
	pxor	%xmm0, %xmm0
	movsd	-524288(%r8,%rax,8), %xmm3
	ucomisd	%xmm0, %xmm3
	jp	.L394
	je	.L377
.L394:
	movslq	%ecx, %rax
	movslq	%r15d, %r10
	movslq	%r14d, %r9
	movq	(%rsi,%rax,8), %r11
	leaq	0(,%rax,8), %rbx
	movq	%rbx, 8(%rsp)
	movslq	%edx, %rbx
	movq	(%r11), %r11
	addq	$1, %rbx
	cmpb	$0, 140(%rdi)
	leaq	0(,%rbx,8), %r8
	movq	16(%r11), %r11
	movq	(%r11,%r10,8), %r11
	movq	(%r11,%r9,8), %r11
	movsd	(%r11,%rbx,8), %xmm4
	je	.L399
	comisd	%xmm2, %xmm4
	jnb	.L377
.L380:
	movq	80(%rsp), %rdi
	movl	88(%rsp), %esi
	movl	%r12d, %ecx
	movl	%edx, 32(%rsp)
	movq	%r9, 72(%rsp)
	addq	$1, %rbp
	movq	%r10, 64(%rsp)
	movq	%rax, 56(%rsp)
	movq	%r8, 48(%rsp)
	movsd	%xmm3, 40(%rsp)
	movsd	%xmm1, 16(%rsp)
	call	vof_concentration_gradient_x
	movl	32(%rsp), %edx
	movl	88(%rsp), %esi
	movl	%r12d, %ecx
	movsd	16(%rsp), %xmm1
	movapd	%xmm0, %xmm5
	movq	80(%rsp), %rdi
	mulsd	%xmm1, %xmm5
	movsd	%xmm1, 24(%rsp)
	movsd	%xmm5, 16(%rsp)
	call	vof_concentration_gradient_y
	movq	56(%rsp), %rax
	movq	64(%rsp), %r10
	leaq	0(,%rbp,8), %rcx
	movq	.LC10(%rip), %rsi
	movq	_attribute(%rip), %rdx
	movapd	%xmm0, %xmm6
	movsd	24(%rsp), %xmm1
	movq	72(%rsp), %r9
	movq	%rsi, %xmm2
	movq	grid(%rip), %rsi
	movq	48(%rsp), %r8
	mulsd	%xmm1, %xmm6
	movsd	16(%rsp), %xmm5
	movzbl	140(%rdx,%r13), %edx
	movq	24(%rsi), %rdi
	movsd	40(%rsp), %xmm3
	testb	%dl, %dl
	movq	(%rdi,%rax,8), %rax
	movq	(%rax), %rax
	movq	16(%rax), %rax
	movq	(%rax,%r10,8), %rax
	movq	(%rax,%r9,8), %rax
	je	.L383
	movapd	%xmm2, %xmm0
	subsd	(%rax,%rbx,8), %xmm0
	movsd	(%rax,%rbp,8), %xmm7
	divsd	%xmm0, %xmm7
.L384:
	movq	8(%rsp), %rbx
	leal	-2(%r15,%r15), %esi
	leal	-2(%r14,%r14), %eax
	movsd	.LC14(%rip), %xmm4
	movslq	%esi, %r9
	movslq	%eax, %r11
	leal	2(%rax), %r10d
	movq	8(%rdi,%rbx), %rdi
	mulsd	%xmm3, %xmm4
	salq	$3, %r11
	leal	2(%rsi), %ebx
	movq	(%rdi), %rdi
	movq	16(%rdi), %rdi
	leaq	(%rdi,%r9,8), %rbp
	xorl	%edi, %edi
.L388:
	movl	%ebx, %esi
	pxor	%xmm1, %xmm1
	movq	0(%rbp,%rdi,8), %r12
	shrl	$31, %esi
	leal	(%rsi,%rdi), %eax
	addq	%r11, %r12
	andl	$1, %eax
	subl	%esi, %eax
	xorl	%esi, %esi
	leal	-1(%rax,%rax), %eax
	cvtsi2sdl	%eax, %xmm1
	mulsd	%xmm5, %xmm1
	mulsd	%xmm3, %xmm1
	divsd	%xmm4, %xmm1
	addsd	%xmm7, %xmm1
.L387:
	movl	%r10d, %r14d
	pxor	%xmm0, %xmm0
	movq	(%r12,%rsi,8), %rax
	shrl	$31, %r14d
	leal	(%r14,%rsi), %r13d
	leaq	(%rax,%rcx), %r9
	addq	%r8, %rax
	andl	$1, %r13d
	subl	%r14d, %r13d
	leal	-1(%r13,%r13), %r13d
	cvtsi2sdl	%r13d, %xmm0
	mulsd	%xmm6, %xmm0
	mulsd	%xmm3, %xmm0
	divsd	%xmm4, %xmm0
	addsd	%xmm1, %xmm0
	movsd	%xmm0, (%r9)
	testb	%dl, %dl
	je	.L385
	movapd	%xmm2, %xmm8
	subsd	(%rax), %xmm8
.L386:
	mulsd	%xmm8, %xmm0
	movsd	%xmm0, (%r9)
	cmpq	$1, %rsi
	jne	.L391
	cmpq	$1, %rdi
	je	.L362
	movl	$1, %edi
	jmp	.L388
	.p2align 4,,10
	.p2align 3
.L399:
	comisd	%xmm4, %xmm0
	jb	.L380
	.p2align 4,,10
	.p2align 3
.L377:
	addl	$1, %ecx
	leal	-2(%r14,%r14), %eax
	leaq	8(,%rbp,8), %rdi
	movslq	%ecx, %rcx
	movq	(%rsi,%rcx,8), %rdx
	movslq	%eax, %rsi
	addl	$1, %eax
	cltq
	salq	$3, %rsi
	movq	(%rdx), %rcx
	leal	-2(%r15,%r15), %edx
	salq	$3, %rax
	movslq	%edx, %rdx
	movq	16(%rcx), %rcx
	leaq	(%rcx,%rdx,8), %r9
	xorl	%ecx, %ecx
.L382:
	movq	(%r9,%rcx,8), %rdx
	movq	(%rdx,%rsi), %r8
	movq	(%rdx,%rax), %rdx
	movq	$0x000000000, (%r8,%rdi)
	movq	$0x000000000, (%rdx,%rdi)
	cmpq	$1, %rcx
	je	.L362
	movl	$1, %ecx
	jmp	.L382
	.p2align 4,,10
	.p2align 3
.L398:
	comisd	%xmm3, %xmm0
	jb	.L367
	.p2align 4,,10
	.p2align 3
.L364:
	movq	8(%rsi,%r10), %rdx
	leal	-2(%r14,%r14), %eax
	leaq	8(,%rbp,8), %rdi
	movslq	%eax, %rsi
	addl	$1, %eax
	movq	(%rdx), %rcx
	leal	-2(%r15,%r15), %edx
	cltq
	salq	$3, %rsi
	movslq	%edx, %rdx
	salq	$3, %rax
	movq	16(%rcx), %rcx
	leaq	(%rcx,%rdx,8), %r9
	xorl	%ecx, %ecx
.L369:
	movq	(%r9,%rcx,8), %rdx
	movq	(%rdx,%rsi), %r8
	movq	(%rdx,%rax), %rdx
	movq	$0x000000000, (%r8,%rdi)
	movq	$0x000000000, (%rdx,%rdi)
	cmpq	$1, %rcx
	je	.L362
	movl	$1, %ecx
	jmp	.L369
	.p2align 4,,10
	.p2align 3
.L391:
	movl	$1, %esi
	jmp	.L387
	.p2align 4,,10
	.p2align 3
.L372:
	movsd	(%rcx), %xmm3
	jmp	.L373
	.p2align 4,,10
	.p2align 3
.L385:
	movsd	(%rax), %xmm8
	jmp	.L386
	.p2align 4,,10
	.p2align 3
.L370:
	movsd	(%rcx,%rbp,8), %xmm5
	divsd	(%rcx,%rax,8), %xmm5
	jmp	.L371
	.p2align 4,,10
	.p2align 3
.L383:
	movsd	(%rax,%rbp,8), %xmm7
	divsd	(%rax,%rbx,8), %xmm7
	jmp	.L384
	.cfi_endproc
.LFE352:
	.size	vof_concentration_refine, .-vof_concentration_refine
	.p2align 4
	.type	defaults_1, @function
defaults_1:
.LFB354:
	.cfi_startproc
	movq	interfaces(%rip), %r8
	testq	%r8, %r8
	je	.L401
	movl	(%r8), %esi
	testl	%esi, %esi
	js	.L401
	movq	_attribute(%rip), %rdi
	jmp	.L404
	.p2align 4,,10
	.p2align 3
.L415:
	movl	4(%r8), %esi
	addq	$4, %r8
	testl	%esi, %esi
	js	.L401
.L404:
	movslq	%esi, %rax
	leaq	(%rax,%rax,4), %rdx
	leaq	(%rax,%rdx,2), %rax
	salq	$4, %rax
	addq	%rdi, %rax
	movq	128(%rax), %rdx
	movq	$fraction_refine, 96(%rax)
	movq	$fraction_refine, 112(%rax)
	movl	$1, 88(%rax)
	testq	%rdx, %rdx
	jne	.L413
	movl	4(%r8), %esi
	addq	$4, %r8
	testl	%esi, %esi
	jns	.L404
.L401:
	xorl	%eax, %eax
	ret
	.p2align 4,,10
	.p2align 3
.L403:
	leaq	(%rax,%rax,4), %rcx
	addq	$4, %rdx
	leaq	(%rax,%rcx,2), %rax
	salq	$4, %rax
	addq	%rdi, %rax
	movq	$restriction_volume_average, 104(%rax)
	movq	$vof_concentration_refine, 96(%rax)
	movq	$vof_concentration_refine, 112(%rax)
	movl	$1, 88(%rax)
	movl	%esi, 136(%rax)
.L413:
	movslq	(%rdx), %rax
	testl	%eax, %eax
	jns	.L403
	jmp	.L415
	.cfi_endproc
.LFE354:
	.size	defaults_1, .-defaults_1
	.p2align 4
	.type	stability_0, @function
stability_0:
.LFB358:
	.cfi_startproc
	movsd	.LC5(%rip), %xmm0
	movsd	CFL(%rip), %xmm1
	comisd	%xmm0, %xmm1
	jbe	.L417
	movsd	%xmm0, CFL(%rip)
.L417:
	xorl	%eax, %eax
	ret
	.cfi_endproc
.LFE358:
	.size	stability_0, .-stability_0
	.p2align 4
	.type	tracer_advection_0, @function
tracer_advection_0:
.LFB367:
	.cfi_startproc
	movslq	f(%rip), %rax
	leaq	(%rax,%rax,4), %rdx
	leaq	(%rax,%rdx,2), %rax
	salq	$4, %rax
	addq	_attribute(%rip), %rax
	movq	$refine_bilinear, 96(%rax)
	movl	$1, 88(%rax)
	xorl	%eax, %eax
	ret
	.cfi_endproc
.LFE367:
	.size	tracer_advection_0, .-tracer_advection_0
	.p2align 4
	.type	curvature_restriction, @function
curvature_restriction:
.LFB374:
	.cfi_startproc
	pushq	%r14
	.cfi_def_cfa_offset 16
	.cfi_offset 14, -16
	movq	%rdi, %rax
	leal	-2(%rdi,%rdi), %ecx
	pxor	%xmm4, %xmm4
	pushq	%rbp
	.cfi_def_cfa_offset 24
	.cfi_offset 6, -24
	shrq	$32, %rax
	movsd	.LC2(%rip), %xmm0
	xorl	%r10d, %r10d
	pushq	%rbx
	.cfi_def_cfa_offset 32
	.cfi_offset 3, -32
	leal	-2(%rax,%rax), %eax
	movapd	%xmm4, %xmm1
	movapd	%xmm4, %xmm2
	movslq	%eax, %rbx
	movsd	.LC10(%rip), %xmm5
	salq	$3, %rbx
	movq	%rdi, -16(%rsp)
	movq	grid(%rip), %rdi
	movl	%esi, -8(%rsp)
	addl	$1, %esi
	movq	24(%rdi), %r8
	movslq	%esi, %rsi
	movslq	%edx, %rdi
	leaq	0(,%rsi,8), %r9
	addq	$1, %rdi
	movq	(%r8,%rsi,8), %rdx
	movslq	%ecx, %rsi
	leaq	0(,%rdi,8), %r11
	movq	(%rdx), %rdx
	movq	16(%rdx), %rdx
	leaq	(%rdx,%rsi,8), %rbp
	leal	1(%rax), %edx
	movslq	%edx, %rdx
	salq	$3, %rdx
.L426:
	movq	0(%rbp,%r10,8), %rsi
	movq	(%rsi,%rbx), %r14
	movsd	(%r14,%r11), %xmm3
	ucomisd	%xmm0, %xmm3
	jp	.L431
	je	.L422
.L431:
	addsd	%xmm3, %xmm2
	addsd	%xmm5, %xmm1
.L422:
	movq	(%rsi,%rdx), %rsi
	movsd	(%rsi,%r11), %xmm3
	ucomisd	%xmm0, %xmm3
	jp	.L432
	je	.L424
.L432:
	addsd	%xmm3, %xmm2
	addsd	%xmm5, %xmm1
.L424:
	cmpq	$1, %r10
	jne	.L429
	addl	$2, %ecx
	addl	$2, %eax
	sarl	%ecx
	sarl	%eax
	ucomisd	%xmm4, %xmm1
	jp	.L433
	jne	.L433
.L427:
	movq	-8(%r8,%r9), %rdx
	movslq	%ecx, %rcx
	cltq
	movq	(%rdx), %rdx
	movq	16(%rdx), %rdx
	movq	(%rdx,%rcx,8), %rdx
	movq	(%rdx,%rax,8), %rax
	movsd	%xmm0, (%rax,%rdi,8)
	popq	%rbx
	.cfi_remember_state
	.cfi_def_cfa_offset 24
	popq	%rbp
	.cfi_def_cfa_offset 16
	popq	%r14
	.cfi_def_cfa_offset 8
	ret
	.p2align 4,,10
	.p2align 3
.L429:
	.cfi_restore_state
	movl	$1, %r10d
	jmp	.L426
	.p2align 4,,10
	.p2align 3
.L433:
	divsd	%xmm1, %xmm2
	movapd	%xmm2, %xmm0
	jmp	.L427
	.cfi_endproc
.LFE374:
	.size	curvature_restriction, .-curvature_restriction
	.p2align 4
	.type	curvature_prolongation, @function
curvature_prolongation:
.LFB375:
	.cfi_startproc
	movq	%rdi, %rax
	pushq	%r15
	.cfi_def_cfa_offset 16
	.cfi_offset 15, -16
	movslq	%edx, %rdx
	movsd	.LC2(%rip), %xmm2
	pushq	%r14
	.cfi_def_cfa_offset 24
	.cfi_offset 14, -24
	shrq	$32, %rax
	movsd	.LC10(%rip), %xmm5
	pxor	%xmm4, %xmm4
	pushq	%r13
	.cfi_def_cfa_offset 32
	.cfi_offset 13, -32
	leal	-2(%rax,%rax), %ecx
	movq	grid(%rip), %rax
	pushq	%r12
	.cfi_def_cfa_offset 40
	.cfi_offset 12, -40
	pushq	%rbp
	.cfi_def_cfa_offset 48
	.cfi_offset 6, -48
	xorl	%ebp, %ebp
	pushq	%rbx
	.cfi_def_cfa_offset 56
	.cfi_offset 3, -56
	movq	24(%rax), %r8
	leal	2(%rcx), %ebx
	movl	%esi, -8(%rsp)
	addl	$1, %esi
	movslq	%esi, %rax
	movq	%rdi, -16(%rsp)
	leal	-2(%rdi,%rdi), %edi
	movq	-8(%r8,%rax,8), %rsi
	movq	(%r8,%rax,8), %rax
	leal	2(%rdi), %r14d
	movq	(%rax), %rax
	movq	(%rsi), %rsi
	movq	16(%rax), %rax
	movq	16(%rsi), %r15
	leaq	8(,%rdx,8), %rsi
	movslq	%edi, %rdx
	leaq	(%rax,%rdx,8), %r9
	movslq	%ecx, %rax
	movq	%r15, %r10
	salq	$3, %rax
	movq	%rax, -24(%rsp)
.L446:
	movl	%r14d, %ecx
	leal	(%r14,%rbp), %edx
	movq	-24(%rsp), %r13
	xorl	%r12d, %r12d
	shrl	$31, %ecx
	addq	(%r9,%rbp,8), %r13
	leal	(%rdx,%rcx), %eax
	andl	$1, %eax
	subl	%ecx, %eax
	leal	-1(%rax,%rax), %r8d
	movl	%edx, %eax
	shrl	$31, %eax
	movslq	%r8d, %r8
	addl	%edx, %eax
	salq	$3, %r8
	sarl	%eax
	cltq
	leaq	(%r10,%rax,8), %r15
	movq	%r15, %r11
.L445:
	leal	(%rbx,%r12), %eax
	movl	%ebx, %edx
	movq	%r9, -32(%rsp)
	movapd	%xmm4, %xmm0
	movl	%eax, %ecx
	shrl	$31, %edx
	movl	$2, %r15d
	movapd	%xmm4, %xmm1
	shrl	$31, %ecx
	addl	%eax, %edx
	addl	%ecx, %eax
	sarl	%edx
	andl	$1, %eax
	movslq	%edx, %rdi
	subl	%ecx, %eax
	salq	$3, %rdi
	leal	-1(%rdx,%rax,2), %edx
	movq	%r11, %rax
	movslq	%edx, %rdx
	salq	$3, %rdx
.L436:
	movq	(%rax), %rcx
	movq	(%rcx,%rdi), %r9
	movsd	(%r9,%rsi), %xmm3
	ucomisd	%xmm2, %xmm3
	jp	.L450
	je	.L438
.L450:
	addsd	%xmm3, %xmm1
	addsd	%xmm5, %xmm0
.L438:
	movq	(%rcx,%rdx), %rcx
	movsd	(%rcx,%rsi), %xmm3
	ucomisd	%xmm2, %xmm3
	jp	.L440
	je	.L442
.L440:
	addsd	%xmm3, %xmm1
	addsd	%xmm5, %xmm0
.L442:
	addq	%r8, %rax
	cmpl	$1, %r15d
	je	.L437
	movl	$1, %r15d
	jmp	.L436
	.p2align 4,,10
	.p2align 3
.L437:
	ucomisd	%xmm4, %xmm0
	movq	-32(%rsp), %r9
	jp	.L451
	movapd	%xmm2, %xmm3
	je	.L443
.L451:
	divsd	%xmm0, %xmm1
	movapd	%xmm1, %xmm3
.L443:
	movq	0(%r13,%r12,8), %rax
	movsd	%xmm3, (%rax,%rsi)
	cmpq	$1, %r12
	jne	.L448
	cmpq	$1, %rbp
	jne	.L449
	popq	%rbx
	.cfi_remember_state
	.cfi_def_cfa_offset 48
	popq	%rbp
	.cfi_def_cfa_offset 40
	popq	%r12
	.cfi_def_cfa_offset 32
	popq	%r13
	.cfi_def_cfa_offset 24
	popq	%r14
	.cfi_def_cfa_offset 16
	popq	%r15
	.cfi_def_cfa_offset 8
	ret
	.p2align 4,,10
	.p2align 3
.L448:
	.cfi_restore_state
	movl	$1, %r12d
	jmp	.L445
	.p2align 4,,10
	.p2align 3
.L449:
	movl	$1, %ebp
	jmp	.L446
	.cfi_endproc
.LFE375:
	.size	curvature_prolongation, .-curvature_prolongation
	.p2align 4
	.type	refine_h_x, @function
refine_h_x:
.LFB380:
	.cfi_startproc
	pushq	%r15
	.cfi_def_cfa_offset 16
	.cfi_offset 15, -16
	movq	%rdi, %rax
	movslq	%edx, %rdx
	movq	.LC17(%rip), %xmm1
	pushq	%r14
	.cfi_def_cfa_offset 24
	.cfi_offset 14, -24
	shrq	$32, %rax
	movsd	.LC2(%rip), %xmm2
	pushq	%r13
	.cfi_def_cfa_offset 32
	.cfi_offset 13, -32
	movapd	%xmm1, %xmm5
	movapd	%xmm1, %xmm4
	pushq	%r12
	.cfi_def_cfa_offset 40
	.cfi_offset 12, -40
	pushq	%rbp
	.cfi_def_cfa_offset 48
	.cfi_offset 6, -48
	movl	$1, %ebp
	pushq	%rbx
	.cfi_def_cfa_offset 56
	.cfi_offset 3, -56
	leal	-2(%rdi,%rdi), %ebx
	leal	-2(%rbx), %r11d
	movq	%rdi, -16(%rsp)
	leal	-2(%rax,%rax), %edi
	movq	grid(%rip), %rax
	movl	%esi, -8(%rsp)
	addl	$1, %esi
	movq	24(%rax), %rax
	movslq	%esi, %rsi
	movl	%ebx, -48(%rsp)
	leaq	0(,%rsi,8), %rcx
	movl	%edi, -44(%rsp)
	movq	%rax, -32(%rsp)
	movq	(%rax,%rsi,8), %rax
	movq	%rcx, -24(%rsp)
	movq	(%rax), %r8
	leaq	1(%rdx), %rax
	movq	%rax, -40(%rsp)
	leaq	0(,%rax,8), %r12
	movslq	%ebx, %rax
	leaq	-16(,%rax,8), %r10
	movslq	%edi, %rax
	movl	(%r8), %esi
	movq	16(%r8), %r15
	salq	$3, %rax
	movq	%rax, -56(%rsp)
	leal	2(%rdi), %eax
	movl	%eax, -60(%rsp)
.L473:
	movq	16(%r15,%r10), %rax
	movl	-44(%rsp), %edi
	movq	-56(%rsp), %r9
	movq	%rax, -72(%rsp)
.L472:
	movq	-72(%rsp), %rax
	movq	%r10, %rcx
	movl	$-2, %edx
	movq	(%rax,%r9), %r14
	movl	%r11d, %eax
	addq	%r12, %r14
	movsd	(%r14), %xmm0
.L469:
	cmpl	%eax, %esi
	jg	.L454
	cmpl	%eax, 4(%r8)
	jle	.L454
	movq	(%r15,%rcx), %rbx
	testq	%rbx, %rbx
	je	.L454
	movq	8(%r8), %r13
	addq	%rcx, %r13
	cmpl	%edi, 0(%r13)
	jg	.L454
	cmpl	%edi, 4(%r13)
	jle	.L454
	movq	(%rbx,%r9), %rbx
	testq	%rbx, %rbx
	je	.L454
	testb	$2, (%rbx)
	je	.L552
.L455:
	movl	4(%rbx), %r13d
	testl	%r13d, %r13d
	js	.L454
	movsd	(%rbx,%r12), %xmm3
	comisd	.LC15(%rip), %xmm3
	jbe	.L538
	movsd	.LC16(%rip), %xmm8
	movapd	%xmm3, %xmm6
	movapd	%xmm1, %xmm7
	movsd	.LC18(%rip), %xmm9
	subsd	%xmm8, %xmm6
	movapd	%xmm6, %xmm8
	andpd	%xmm4, %xmm8
	comisd	%xmm8, %xmm9
	jb	.L454
.L458:
	pxor	%xmm9, %xmm9
	comisd	.LC15(%rip), %xmm0
	cvtsi2sdl	%edx, %xmm9
	addsd	%xmm9, %xmm6
	andpd	%xmm7, %xmm6
	jbe	.L541
	movapd	%xmm0, %xmm8
	subsd	.LC16(%rip), %xmm8
.L466:
	andpd	%xmm8, %xmm7
	comisd	%xmm6, %xmm7
	jbe	.L454
	addsd	%xmm9, %xmm3
	movapd	%xmm3, %xmm0
	movsd	%xmm3, (%r14)
	.p2align 4,,10
	.p2align 3
.L454:
	addl	$1, %edx
	addl	$1, %eax
	addq	$8, %rcx
	cmpl	$3, %edx
	jne	.L469
.L553:
	ucomisd	%xmm2, %xmm0
	jp	.L470
	movl	$0, %eax
	cmove	%eax, %ebp
.L470:
	movl	-60(%rsp), %ebx
	addl	$1, %edi
	addq	$8, %r9
	cmpl	%edi, %ebx
	jne	.L472
	movl	-48(%rsp), %eax
	addl	$1, %r11d
	addq	$8, %r10
	cmpl	%r11d, %eax
	jne	.L473
	testb	%bpl, %bpl
	jne	.L453
	sarl	%ebx
	movq	-24(%rsp), %rcx
	addl	$2, %eax
	xorl	%r9d, %r9d
	movl	%ebx, %edi
	movq	-32(%rsp), %rbx
	sarl	%eax
	movq	.LC17(%rip), %xmm3
	movq	-8(%rbx,%rcx), %rdx
	movslq	%eax, %rcx
	movq	-40(%rsp), %rbx
	movq	(%rdx), %rdx
	movq	16(%rdx), %rdx
	movq	(%rdx,%rcx,8), %r10
	movslq	%edi, %rcx
	salq	$3, %rcx
	leaq	(%r10,%rcx), %r8
	movq	(%r8), %rdx
	movsd	(%rdx,%rbx,8), %xmm1
	movq	$-1, %rdx
	movapd	%xmm1, %xmm0
	andpd	%xmm3, %xmm0
	comisd	.LC15(%rip), %xmm0
	seta	%r9b
.L477:
	movq	(%r8,%rdx,8), %rsi
	movsd	(%rsi,%r12), %xmm0
	ucomisd	%xmm2, %xmm0
	jp	.L515
	je	.L453
.L515:
	xorl	%esi, %esi
	andpd	%xmm3, %xmm0
	comisd	.LC15(%rip), %xmm0
	seta	%sil
	cmpl	%esi, %r9d
	jne	.L453
	addq	$1, %rdx
	cmpq	$2, %rdx
	jne	.L477
	movsd	.LC15(%rip), %xmm4
	comisd	%xmm4, %xmm1
	jbe	.L543
	movsd	.LC16(%rip), %xmm5
	subsd	%xmm5, %xmm1
.L480:
	movq	8(%r10,%rcx), %rdx
	movq	-40(%rsp), %rbx
	mulsd	.LC20(%rip), %xmm1
	movsd	(%rdx,%rbx,8), %xmm0
	comisd	%xmm4, %xmm0
	jbe	.L544
	movapd	%xmm0, %xmm3
	subsd	%xmm5, %xmm3
.L484:
	movq	-8(%r10,%rcx), %rdx
	movq	-40(%rsp), %rbx
	addsd	%xmm3, %xmm1
	movsd	(%rdx,%rbx,8), %xmm3
	comisd	%xmm4, %xmm3
	jbe	.L546
	movapd	%xmm3, %xmm6
	subsd	%xmm5, %xmm6
.L488:
	addsd	%xmm6, %xmm1
	mulsd	.LC8(%rip), %xmm1
	pxor	%xmm6, %xmm6
	cvtsi2sdl	%r9d, %xmm6
	comisd	%xmm4, %xmm0
	mulsd	%xmm5, %xmm6
	addsd	%xmm6, %xmm1
	jbe	.L548
	subsd	%xmm5, %xmm0
.L492:
	comisd	%xmm4, %xmm3
	jbe	.L549
	subsd	%xmm5, %xmm3
.L496:
	subsd	%xmm3, %xmm0
	leal	-2(%rax,%rax), %eax
	movsd	.LC3(%rip), %xmm3
	movsd	.LC5(%rip), %xmm5
	leal	-2(%rdi,%rdi), %esi
	movslq	%eax, %rdx
	leal	2(%rax), %r8d
	xorl	%ecx, %ecx
	movslq	%esi, %rdi
	leaq	(%r15,%rdx,8), %r9
	addl	$2, %esi
	mulsd	%xmm0, %xmm3
	salq	$3, %rdi
.L501:
	movl	%r8d, %edx
	movq	(%r9,%rcx,8), %r11
	shrl	$31, %edx
	leal	(%rdx,%rcx), %eax
	addq	%rdi, %r11
	andl	$1, %eax
	subl	%edx, %eax
	leal	-1(%rax,%rax), %ebx
	xorl	%eax, %eax
.L500:
	movq	(%r11,%rax,8), %r10
	addq	%r12, %r10
	ucomisd	(%r10), %xmm2
	jp	.L498
	jne	.L498
	movl	%esi, %ebp
	pxor	%xmm0, %xmm0
	pxor	%xmm4, %xmm4
	shrl	$31, %ebp
	cvtsi2sdl	%ebx, %xmm4
	leal	0(%rbp,%rax), %edx
	andl	$1, %edx
	subl	%ebp, %edx
	leal	-1(%rdx,%rdx), %edx
	mulsd	%xmm5, %xmm4
	cvtsi2sdl	%edx, %xmm0
	mulsd	%xmm3, %xmm0
	addsd	%xmm1, %xmm0
	subsd	%xmm4, %xmm0
	movsd	%xmm0, (%r10)
.L498:
	cmpq	$1, %rax
	jne	.L506
	cmpq	$1, %rcx
	je	.L453
	movl	$1, %ecx
	jmp	.L501
	.p2align 4,,10
	.p2align 3
.L453:
	popq	%rbx
	.cfi_remember_state
	.cfi_def_cfa_offset 48
	popq	%rbp
	.cfi_def_cfa_offset 40
	popq	%r12
	.cfi_def_cfa_offset 32
	popq	%r13
	.cfi_def_cfa_offset 24
	popq	%r14
	.cfi_def_cfa_offset 16
	popq	%r15
	.cfi_def_cfa_offset 8
	ret
	.p2align 4,,10
	.p2align 3
.L552:
	.cfi_restore_state
	cmpw	$0, 2(%rbx)
	jne	.L455
	addl	$1, %edx
	addl	$1, %eax
	addq	$8, %rcx
	cmpl	$3, %edx
	jne	.L469
	jmp	.L553
	.p2align 4,,10
	.p2align 3
.L543:
	movsd	.LC19(%rip), %xmm0
	movsd	.LC16(%rip), %xmm5
	comisd	%xmm1, %xmm0
	jbe	.L480
	addsd	%xmm5, %xmm1
	jmp	.L480
	.p2align 4,,10
	.p2align 3
.L506:
	movl	$1, %eax
	jmp	.L500
	.p2align 4,,10
	.p2align 3
.L549:
	movsd	.LC19(%rip), %xmm4
	comisd	%xmm3, %xmm4
	jbe	.L496
	addsd	%xmm5, %xmm3
	jmp	.L496
	.p2align 4,,10
	.p2align 3
.L548:
	movsd	.LC19(%rip), %xmm6
	comisd	%xmm0, %xmm6
	jbe	.L492
	addsd	%xmm5, %xmm0
	jmp	.L492
	.p2align 4,,10
	.p2align 3
.L546:
	movsd	.LC19(%rip), %xmm6
	comisd	%xmm3, %xmm6
	movapd	%xmm3, %xmm6
	jbe	.L488
	addsd	%xmm5, %xmm6
	jmp	.L488
	.p2align 4,,10
	.p2align 3
.L544:
	movsd	.LC19(%rip), %xmm3
	comisd	%xmm0, %xmm3
	movapd	%xmm0, %xmm3
	jbe	.L484
	addsd	%xmm5, %xmm3
	jmp	.L484
.L538:
	movsd	.LC19(%rip), %xmm7
	comisd	%xmm3, %xmm7
	jbe	.L539
	movsd	.LC16(%rip), %xmm8
	movapd	%xmm3, %xmm6
	movapd	%xmm1, %xmm7
	movsd	.LC18(%rip), %xmm9
	addsd	%xmm8, %xmm6
	andpd	%xmm5, %xmm6
	comisd	%xmm6, %xmm9
	jb	.L454
.L461:
	movapd	%xmm8, %xmm6
	addsd	%xmm3, %xmm6
	jmp	.L458
.L539:
	movsd	.LC18(%rip), %xmm10
	movapd	%xmm3, %xmm6
	movapd	%xmm1, %xmm7
	andpd	%xmm1, %xmm6
	comisd	%xmm6, %xmm10
	jb	.L454
	movsd	.LC19(%rip), %xmm6
	comisd	%xmm3, %xmm6
	ja	.L554
	movapd	%xmm3, %xmm6
	jmp	.L458
.L541:
	movsd	.LC19(%rip), %xmm11
	movapd	%xmm0, %xmm8
	comisd	%xmm0, %xmm11
	jbe	.L466
	movsd	.LC16(%rip), %xmm8
	addsd	%xmm0, %xmm8
	jmp	.L466
.L554:
	movq	.LC16(%rip), %rbx
	movq	%rbx, %xmm8
	jmp	.L461
	.cfi_endproc
.LFE380:
	.size	refine_h_x, .-refine_h_x
	.p2align 4
	.type	refine_h_y, @function
refine_h_y:
.LFB381:
	.cfi_startproc
	pushq	%r15
	.cfi_def_cfa_offset 16
	.cfi_offset 15, -16
	movq	%rdi, %rax
	movslq	%edx, %r15
	movq	grid(%rip), %rcx
	pushq	%r14
	.cfi_def_cfa_offset 24
	.cfi_offset 14, -24
	movq	.LC17(%rip), %xmm1
	addq	$1, %r15
	pushq	%r13
	.cfi_def_cfa_offset 32
	.cfi_offset 13, -32
	movsd	.LC2(%rip), %xmm2
	pushq	%r12
	.cfi_def_cfa_offset 40
	.cfi_offset 12, -40
	movapd	%xmm1, %xmm5
	movapd	%xmm1, %xmm4
	leaq	0(,%r15,8), %r12
	pushq	%rbp
	.cfi_def_cfa_offset 48
	.cfi_offset 6, -48
	pushq	%rbx
	.cfi_def_cfa_offset 56
	.cfi_offset 3, -56
	movq	%rdi, %rbx
	shrq	$32, %rbx
	leal	-2(%rbx,%rbx), %r11d
	movq	24(%rcx), %rbx
	movl	%esi, -8(%rsp)
	addl	$1, %esi
	movslq	%esi, %rsi
	movq	%rdi, -16(%rsp)
	movq	(%rbx,%rsi,8), %rcx
	leaq	0(,%rsi,8), %rdi
	movq	%rbx, -32(%rsp)
	movl	$1, %ebx
	movq	%rdi, -24(%rsp)
	movq	(%rcx), %r8
	leal	-2(%rax,%rax), %ecx
	leal	2(%rcx), %eax
	movslq	%ecx, %r10
	movq	16(%r8), %rdi
	movl	(%r8), %esi
	movl	%eax, -36(%rsp)
	movslq	%r11d, %rax
	salq	$3, %rax
	salq	$3, %r10
	movq	%rax, -48(%rsp)
	leal	-2(%r11), %eax
	movq	%rdi, -56(%rsp)
	movl	%eax, -40(%rsp)
.L575:
	movq	-56(%rsp), %rax
	movl	-40(%rsp), %edi
	movq	(%rax,%r10), %rbp
	movq	-48(%rsp), %rax
	leaq	0(%rbp,%rax), %r9
.L574:
	movq	(%r9), %r14
	movl	%edi, %edx
	movl	$-2, %eax
	addq	%r12, %r14
	movsd	(%r14), %xmm0
.L571:
	cmpl	%ecx, %esi
	jg	.L556
	cmpl	%ecx, 4(%r8)
	jle	.L556
	testq	%rbp, %rbp
	je	.L556
	movq	8(%r8), %r13
	addq	%r10, %r13
	cmpl	0(%r13), %edx
	jl	.L556
	cmpl	4(%r13), %edx
	jge	.L556
	movslq	%edx, %r13
	movq	0(%rbp,%r13,8), %r13
	testq	%r13, %r13
	je	.L556
	testb	$2, 0(%r13)
	je	.L654
.L557:
	cmpl	$0, 4(%r13)
	js	.L556
	movsd	0(%r13,%r12), %xmm3
	comisd	.LC15(%rip), %xmm3
	jbe	.L640
	movsd	.LC16(%rip), %xmm8
	movapd	%xmm3, %xmm6
	movapd	%xmm1, %xmm7
	movsd	.LC18(%rip), %xmm9
	subsd	%xmm8, %xmm6
	movapd	%xmm6, %xmm8
	andpd	%xmm4, %xmm8
	comisd	%xmm8, %xmm9
	jb	.L556
.L560:
	pxor	%xmm9, %xmm9
	comisd	.LC15(%rip), %xmm0
	cvtsi2sdl	%eax, %xmm9
	addsd	%xmm9, %xmm6
	andpd	%xmm7, %xmm6
	jbe	.L643
	movapd	%xmm0, %xmm8
	subsd	.LC16(%rip), %xmm8
.L568:
	andpd	%xmm8, %xmm7
	comisd	%xmm6, %xmm7
	jbe	.L556
	addsd	%xmm9, %xmm3
	movapd	%xmm3, %xmm0
	movsd	%xmm3, (%r14)
	.p2align 4,,10
	.p2align 3
.L556:
	addl	$1, %eax
	addl	$1, %edx
	cmpl	$3, %eax
	jne	.L571
.L655:
	ucomisd	%xmm2, %xmm0
	jp	.L572
	movl	$0, %eax
	cmove	%eax, %ebx
.L572:
	addl	$1, %edi
	addq	$8, %r9
	cmpl	%edi, %r11d
	jne	.L574
	movl	-36(%rsp), %eax
	addl	$1, %ecx
	addq	$8, %r10
	cmpl	%ecx, %eax
	jne	.L575
	testb	%bl, %bl
	jne	.L555
	sarl	%eax
	movq	-24(%rsp), %rbx
	addl	$2, %r11d
	xorl	%r9d, %r9d
	movslq	%eax, %rdx
	movq	-32(%rsp), %rax
	sarl	%r11d
	movq	.LC17(%rip), %xmm3
	movq	%rdx, %rcx
	salq	$3, %rdx
	movslq	%r11d, %rdi
	movq	-8(%rax,%rbx), %rax
	leaq	0(,%rdi,8), %rbx
	movq	(%rax), %rax
	movq	16(%rax), %r10
	leaq	(%r10,%rdx), %r8
	movq	(%r8), %rax
	movq	(%rax,%rdi,8), %rax
	movsd	(%rax,%r15,8), %xmm1
	movq	$-1, %rax
	movapd	%xmm1, %xmm0
	andpd	%xmm3, %xmm0
	comisd	.LC15(%rip), %xmm0
	seta	%r9b
.L579:
	movq	(%r8,%rax,8), %rsi
	movq	(%rsi,%rbx), %rsi
	movsd	(%rsi,%r12), %xmm0
	ucomisd	%xmm2, %xmm0
	jp	.L617
	je	.L555
.L617:
	xorl	%esi, %esi
	andpd	%xmm3, %xmm0
	comisd	.LC15(%rip), %xmm0
	seta	%sil
	cmpl	%esi, %r9d
	jne	.L555
	addq	$1, %rax
	cmpq	$2, %rax
	jne	.L579
	movsd	.LC15(%rip), %xmm4
	comisd	%xmm4, %xmm1
	jbe	.L645
	movsd	.LC16(%rip), %xmm5
	subsd	%xmm5, %xmm1
.L582:
	movq	8(%r10,%rdx), %rax
	mulsd	.LC20(%rip), %xmm1
	movq	(%rax,%rdi,8), %rax
	movsd	(%rax,%r15,8), %xmm0
	comisd	%xmm4, %xmm0
	jbe	.L646
	movapd	%xmm0, %xmm3
	subsd	%xmm5, %xmm3
.L586:
	movq	-8(%r10,%rdx), %rax
	addsd	%xmm3, %xmm1
	movq	(%rax,%rdi,8), %rax
	movsd	(%rax,%r15,8), %xmm3
	comisd	%xmm4, %xmm3
	jbe	.L648
	movapd	%xmm3, %xmm6
	subsd	%xmm5, %xmm6
.L590:
	addsd	%xmm6, %xmm1
	mulsd	.LC8(%rip), %xmm1
	pxor	%xmm6, %xmm6
	cvtsi2sdl	%r9d, %xmm6
	comisd	%xmm4, %xmm0
	mulsd	%xmm5, %xmm6
	addsd	%xmm6, %xmm1
	jbe	.L650
	subsd	%xmm5, %xmm0
.L594:
	comisd	%xmm4, %xmm3
	jbe	.L651
	subsd	%xmm5, %xmm3
.L598:
	subsd	%xmm3, %xmm0
	leal	-2(%rcx,%rcx), %eax
	movq	-56(%rsp), %rdi
	xorl	%ecx, %ecx
	movsd	.LC3(%rip), %xmm3
	leal	-2(%r11,%r11), %esi
	movslq	%eax, %rdx
	movsd	.LC5(%rip), %xmm5
	leaq	(%rdi,%rdx,8), %r9
	movslq	%esi, %rdi
	leal	2(%rax), %r8d
	addl	$2, %esi
	mulsd	%xmm0, %xmm3
	salq	$3, %rdi
.L603:
	movl	%r8d, %edx
	movq	(%r9,%rcx,8), %r11
	shrl	$31, %edx
	leal	(%rdx,%rcx), %eax
	addq	%rdi, %r11
	andl	$1, %eax
	subl	%edx, %eax
	leal	-1(%rax,%rax), %ebx
	xorl	%eax, %eax
.L602:
	movq	(%r11,%rax,8), %r10
	addq	%r12, %r10
	ucomisd	(%r10), %xmm2
	jp	.L600
	jne	.L600
	movl	%esi, %ebp
	pxor	%xmm0, %xmm0
	pxor	%xmm4, %xmm4
	shrl	$31, %ebp
	cvtsi2sdl	%ebx, %xmm0
	leal	0(%rbp,%rax), %edx
	andl	$1, %edx
	subl	%ebp, %edx
	leal	-1(%rdx,%rdx), %edx
	mulsd	%xmm3, %xmm0
	cvtsi2sdl	%edx, %xmm4
	mulsd	%xmm5, %xmm4
	addsd	%xmm1, %xmm0
	subsd	%xmm4, %xmm0
	movsd	%xmm0, (%r10)
.L600:
	cmpq	$1, %rax
	jne	.L608
	cmpq	$1, %rcx
	je	.L555
	movl	$1, %ecx
	jmp	.L603
	.p2align 4,,10
	.p2align 3
.L555:
	popq	%rbx
	.cfi_remember_state
	.cfi_def_cfa_offset 48
	popq	%rbp
	.cfi_def_cfa_offset 40
	popq	%r12
	.cfi_def_cfa_offset 32
	popq	%r13
	.cfi_def_cfa_offset 24
	popq	%r14
	.cfi_def_cfa_offset 16
	popq	%r15
	.cfi_def_cfa_offset 8
	ret
	.p2align 4,,10
	.p2align 3
.L654:
	.cfi_restore_state
	cmpw	$0, 2(%r13)
	jne	.L557
	addl	$1, %eax
	addl	$1, %edx
	cmpl	$3, %eax
	jne	.L571
	jmp	.L655
	.p2align 4,,10
	.p2align 3
.L645:
	movsd	.LC19(%rip), %xmm0
	movsd	.LC16(%rip), %xmm5
	comisd	%xmm1, %xmm0
	jbe	.L582
	addsd	%xmm5, %xmm1
	jmp	.L582
	.p2align 4,,10
	.p2align 3
.L608:
	movl	$1, %eax
	jmp	.L602
	.p2align 4,,10
	.p2align 3
.L651:
	movsd	.LC19(%rip), %xmm4
	comisd	%xmm3, %xmm4
	jbe	.L598
	addsd	%xmm5, %xmm3
	jmp	.L598
	.p2align 4,,10
	.p2align 3
.L650:
	movsd	.LC19(%rip), %xmm6
	comisd	%xmm0, %xmm6
	jbe	.L594
	addsd	%xmm5, %xmm0
	jmp	.L594
	.p2align 4,,10
	.p2align 3
.L648:
	movsd	.LC19(%rip), %xmm6
	comisd	%xmm3, %xmm6
	movapd	%xmm3, %xmm6
	jbe	.L590
	addsd	%xmm5, %xmm6
	jmp	.L590
	.p2align 4,,10
	.p2align 3
.L646:
	movsd	.LC19(%rip), %xmm3
	comisd	%xmm0, %xmm3
	movapd	%xmm0, %xmm3
	jbe	.L586
	addsd	%xmm5, %xmm3
	jmp	.L586
.L640:
	movsd	.LC19(%rip), %xmm7
	comisd	%xmm3, %xmm7
	jbe	.L641
	movsd	.LC16(%rip), %xmm8
	movapd	%xmm3, %xmm6
	movapd	%xmm1, %xmm7
	movsd	.LC18(%rip), %xmm9
	addsd	%xmm8, %xmm6
	andpd	%xmm5, %xmm6
	comisd	%xmm6, %xmm9
	jb	.L556
.L563:
	movapd	%xmm8, %xmm6
	addsd	%xmm3, %xmm6
	jmp	.L560
.L641:
	movsd	.LC18(%rip), %xmm10
	movapd	%xmm3, %xmm6
	movapd	%xmm1, %xmm7
	andpd	%xmm1, %xmm6
	comisd	%xmm6, %xmm10
	jb	.L556
	movsd	.LC19(%rip), %xmm6
	comisd	%xmm3, %xmm6
	ja	.L656
	movapd	%xmm3, %xmm6
	jmp	.L560
.L643:
	movsd	.LC19(%rip), %xmm11
	movapd	%xmm0, %xmm8
	comisd	%xmm0, %xmm11
	jbe	.L568
	movsd	.LC16(%rip), %xmm8
	addsd	%xmm0, %xmm8
	jmp	.L568
.L656:
	movq	.LC16(%rip), %r13
	movq	%r13, %xmm8
	jmp	.L563
	.cfi_endproc
.LFE381:
	.size	refine_h_y, .-refine_h_y
	.p2align 4
	.type	pos_x, @function
pos_x:
.LFB402:
	.cfi_startproc
	movq	%rcx, %rax
	movq	grid(%rip), %rcx
	movl	%esi, %r9d
	movslq	%edi, %r11
	movq	%rdi, %rsi
	movq	%rdi, -16(%rsp)
	movslq	%r9d, %rdi
	movslq	%edx, %rdx
	movq	24(%rcx), %rcx
	shrq	$32, %rsi
	movl	%r9d, -8(%rsp)
	movq	%r11, %r10
	movq	(%rcx,%rdi,8), %rcx
	movslq	%esi, %rdi
	movq	(%rcx), %rcx
	movq	16(%rcx), %rcx
	movq	(%rcx,%r11,8), %rcx
	movq	(%rcx,%rdi,8), %rcx
	movsd	8(%rcx,%rdx,8), %xmm1
	comisd	.LC15(%rip), %xmm1
	jbe	.L672
	subsd	.LC16(%rip), %xmm1
	movsd	.LC10(%rip), %xmm2
	movsd	.LC2(%rip), %xmm0
	movapd	%xmm1, %xmm3
	andpd	.LC17(%rip), %xmm3
	comisd	%xmm2, %xmm3
	ja	.L674
.L661:
	movl	%r9d, %ecx
	movl	$1, %edx
	pxor	%xmm0, %xmm0
	movsd	L0(%rip), %xmm3
	sall	%cl, %edx
	leal	-2(%r10), %ecx
	movsd	.LC5(%rip), %xmm4
	cvtsi2sdl	%edx, %xmm0
	leal	-2(%rsi), %edx
	divsd	%xmm0, %xmm2
	pxor	%xmm0, %xmm0
	mulsd	%xmm2, %xmm3
	pxor	%xmm2, %xmm2
	cvtsi2sdl	%ecx, %xmm2
	addsd	%xmm0, %xmm2
	mulsd	%xmm3, %xmm1
	addsd	%xmm4, %xmm2
	mulsd	%xmm3, %xmm2
	addsd	X0(%rip), %xmm2
	addsd	%xmm1, %xmm2
	pxor	%xmm1, %xmm1
	subsd	(%r8), %xmm2
	cvtsi2sdl	%edx, %xmm1
	mulsd	(%rax), %xmm2
	addsd	%xmm0, %xmm1
	addsd	%xmm0, %xmm2
	addsd	%xmm4, %xmm1
	movapd	%xmm1, %xmm0
	mulsd	%xmm3, %xmm0
	addsd	Y0(%rip), %xmm0
	subsd	8(%r8), %xmm0
	mulsd	8(%rax), %xmm0
	addsd	%xmm2, %xmm0
.L657:
	ret
	.p2align 4,,10
	.p2align 3
.L672:
	movsd	.LC19(%rip), %xmm3
	comisd	%xmm1, %xmm3
	jbe	.L673
	movsd	.LC16(%rip), %xmm4
	movapd	%xmm1, %xmm3
	movsd	.LC10(%rip), %xmm2
	movsd	.LC2(%rip), %xmm0
	addsd	%xmm4, %xmm3
	andpd	.LC17(%rip), %xmm3
	comisd	%xmm2, %xmm3
	ja	.L675
.L664:
	addsd	%xmm4, %xmm1
	jmp	.L661
	.p2align 4,,10
	.p2align 3
.L673:
	movsd	.LC10(%rip), %xmm2
	movapd	%xmm1, %xmm4
	andpd	.LC17(%rip), %xmm4
	movsd	.LC2(%rip), %xmm0
	comisd	%xmm2, %xmm4
	ja	.L657
	comisd	%xmm1, %xmm3
	jbe	.L661
	movsd	.LC16(%rip), %xmm4
	jmp	.L664
	.p2align 4,,10
	.p2align 3
.L674:
	ret
	.p2align 4,,10
	.p2align 3
.L675:
	ret
	.cfi_endproc
.LFE402:
	.size	pos_x, .-pos_x
	.p2align 4
	.type	pos_y, @function
pos_y:
.LFB403:
	.cfi_startproc
	movq	%rcx, %rax
	movq	%rdi, %rcx
	movl	%esi, %r9d
	movslq	%edi, %r11
	shrq	$32, %rcx
	movq	%rdi, -16(%rsp)
	movslq	%r9d, %rdi
	sarq	$32, %rdx
	movq	%rcx, %r10
	movq	grid(%rip), %rcx
	movl	%r9d, -8(%rsp)
	movq	%r11, %rsi
	movq	24(%rcx), %rcx
	movq	(%rcx,%rdi,8), %rcx
	movslq	%r10d, %rdi
	movq	(%rcx), %rcx
	movq	16(%rcx), %rcx
	movq	(%rcx,%r11,8), %rcx
	movq	(%rcx,%rdi,8), %rcx
	movsd	8(%rcx,%rdx,8), %xmm1
	comisd	.LC15(%rip), %xmm1
	jbe	.L691
	subsd	.LC16(%rip), %xmm1
	movsd	.LC10(%rip), %xmm2
	movsd	.LC2(%rip), %xmm0
	movapd	%xmm1, %xmm3
	andpd	.LC17(%rip), %xmm3
	comisd	%xmm2, %xmm3
	ja	.L693
.L680:
	movl	%r9d, %ecx
	movl	$1, %edx
	pxor	%xmm0, %xmm0
	movsd	L0(%rip), %xmm3
	sall	%cl, %edx
	leal	-2(%r10), %ecx
	movsd	.LC5(%rip), %xmm4
	cvtsi2sdl	%edx, %xmm0
	leal	-2(%rsi), %edx
	divsd	%xmm0, %xmm2
	pxor	%xmm0, %xmm0
	mulsd	%xmm2, %xmm3
	pxor	%xmm2, %xmm2
	cvtsi2sdl	%ecx, %xmm2
	addsd	%xmm0, %xmm2
	mulsd	%xmm3, %xmm1
	addsd	%xmm4, %xmm2
	mulsd	%xmm3, %xmm2
	addsd	Y0(%rip), %xmm2
	addsd	%xmm1, %xmm2
	pxor	%xmm1, %xmm1
	subsd	8(%r8), %xmm2
	cvtsi2sdl	%edx, %xmm1
	mulsd	8(%rax), %xmm2
	addsd	%xmm0, %xmm1
	addsd	%xmm0, %xmm2
	addsd	%xmm4, %xmm1
	movapd	%xmm1, %xmm0
	mulsd	%xmm3, %xmm0
	addsd	X0(%rip), %xmm0
	subsd	(%r8), %xmm0
	mulsd	(%rax), %xmm0
	addsd	%xmm2, %xmm0
.L676:
	ret
	.p2align 4,,10
	.p2align 3
.L691:
	movsd	.LC19(%rip), %xmm3
	comisd	%xmm1, %xmm3
	jbe	.L692
	movsd	.LC16(%rip), %xmm4
	movapd	%xmm1, %xmm3
	movsd	.LC10(%rip), %xmm2
	movsd	.LC2(%rip), %xmm0
	addsd	%xmm4, %xmm3
	andpd	.LC17(%rip), %xmm3
	comisd	%xmm2, %xmm3
	ja	.L694
.L683:
	addsd	%xmm4, %xmm1
	jmp	.L680
	.p2align 4,,10
	.p2align 3
.L692:
	movsd	.LC10(%rip), %xmm2
	movapd	%xmm1, %xmm4
	andpd	.LC17(%rip), %xmm4
	movsd	.LC2(%rip), %xmm0
	comisd	%xmm2, %xmm4
	ja	.L676
	comisd	%xmm1, %xmm3
	jbe	.L680
	movsd	.LC16(%rip), %xmm4
	jmp	.L683
	.p2align 4,,10
	.p2align 3
.L693:
	ret
	.p2align 4,,10
	.p2align 3
.L694:
	ret
	.cfi_endproc
.LFE403:
	.size	pos_y, .-pos_y
	.p2align 4
	.type	_boundary4, @function
_boundary4:
.LFB411:
	.cfi_startproc
	movq	grid(%rip), %rax
	movslq	%esi, %rsi
	movslq	%edi, %rdx
	movslq	%r8d, %r8
	sarq	$32, %rdi
	pxor	%xmm0, %xmm0
	movq	24(%rax), %rax
	movq	(%rax,%rsi,8), %rax
	movq	(%rax), %rax
	movq	16(%rax), %rax
	movq	(%rax,%rdx,8), %rax
	movq	(%rax,%rdi,8), %rax
	subsd	8(%rax,%r8,8), %xmm0
	ret
	.cfi_endproc
.LFE411:
	.size	_boundary4, .-_boundary4
	.p2align 4
	.type	_boundary4_homogeneous, @function
_boundary4_homogeneous:
.LFB412:
	.cfi_startproc
	movq	grid(%rip), %rax
	movslq	%esi, %rsi
	movslq	%edi, %rdx
	movslq	%r8d, %r8
	sarq	$32, %rdi
	movq	24(%rax), %rax
	movq	(%rax,%rsi,8), %rax
	movq	(%rax), %rax
	movq	16(%rax), %rax
	movq	(%rax,%rdx,8), %rax
	movq	(%rax,%rdi,8), %rax
	movsd	8(%rax,%r8,8), %xmm0
	xorpd	.LC1(%rip), %xmm0
	ret
	.cfi_endproc
.LFE412:
	.size	_boundary4_homogeneous, .-_boundary4_homogeneous
	.p2align 4
	.type	_boundary6, @function
_boundary6:
.LFB415:
	.cfi_startproc
	pxor	%xmm0, %xmm0
	ret
	.cfi_endproc
.LFE415:
	.size	_boundary6, .-_boundary6
	.p2align 4
	.type	init_0_expr0, @function
init_0_expr0:
.LFB418:
	.cfi_startproc
	movq	$0x000000000, (%rsi)
	xorl	%eax, %eax
	ret
	.cfi_endproc
.LFE418:
	.size	init_0_expr0, .-init_0_expr0
	.p2align 4
	.type	output_field_bolla_expr0, @function
output_field_bolla_expr0:
.LFB424:
	.cfi_startproc
	movsd	.LC21(%rip), %xmm0
	xorl	%eax, %eax
	comisd	(%rsi), %xmm0
	setnb	%al
	ret
	.cfi_endproc
.LFE424:
	.size	output_field_bolla_expr0, .-output_field_bolla_expr0
	.p2align 4
	.type	output_field_bolla_expr1, @function
output_field_bolla_expr1:
.LFB425:
	.cfi_startproc
	movsd	.LC22(%rip), %xmm0
	addsd	(%rsi), %xmm0
	cvttsd2sil	%xmm0, %eax
	movsd	%xmm0, (%rsi)
	ret
	.cfi_endproc
.LFE425:
	.size	output_field_bolla_expr1, .-output_field_bolla_expr1
	.p2align 4
	.type	free_display_defaults, @function
free_display_defaults:
.LFB62:
	.cfi_startproc
	movq	display_defaults(%rip), %rdi
	jmp	free
	.cfi_endproc
.LFE62:
	.size	free_display_defaults, .-free_display_defaults
	.p2align 4
	.type	cache_append, @function
cache_append:
.LFB84:
	.cfi_startproc
	pushq	%rbp
	.cfi_def_cfa_offset 16
	.cfi_offset 6, -16
	movl	%ecx, %ebp
	pushq	%rbx
	.cfi_def_cfa_offset 24
	.cfi_offset 3, -24
	movq	%rdi, %rbx
	subq	$24, %rsp
	.cfi_def_cfa_offset 48
	movl	8(%rdi), %eax
	movq	%rsi, (%rsp)
	movl	12(%rdi), %esi
	movl	%edx, 8(%rsp)
	movq	(%rdi), %rdi
	cmpl	%esi, %eax
	jge	.L705
.L703:
	movslq	%eax, %rdx
	movzwl	%bp, %ebp
	addl	$1, %eax
	salq	$4, %rdx
	addq	%rdx, %rdi
	movq	(%rsp), %rdx
	movl	%ebp, 12(%rdi)
	movq	%rdx, (%rdi)
	movl	8(%rsp), %edx
	movl	%edx, 8(%rdi)
	movl	%eax, 8(%rbx)
	addq	$24, %rsp
	.cfi_remember_state
	.cfi_def_cfa_offset 24
	popq	%rbx
	.cfi_def_cfa_offset 16
	popq	%rbp
	.cfi_def_cfa_offset 8
	ret
	.p2align 4,,10
	.p2align 3
.L705:
	.cfi_restore_state
	subl	$-128, %esi
	movl	%esi, 12(%rbx)
	movslq	%esi, %rsi
	salq	$4, %rsi
	call	realloc
	movq	%rax, (%rbx)
	movq	%rax, %rdi
	movl	8(%rbx), %eax
	jmp	.L703
	.cfi_endproc
.LFE84:
	.size	cache_append, .-cache_append
	.p2align 4
	.type	cache_append_face, @function
cache_append_face:
.LFB87:
	.cfi_startproc
	pushq	%r15
	.cfi_def_cfa_offset 16
	.cfi_offset 15, -16
	movq	%rdi, %r8
	movq	%rdi, %rax
	movslq	%edi, %r15
	pushq	%r14
	.cfi_def_cfa_offset 24
	.cfi_offset 14, -24
	shrq	$32, %rax
	movzwl	%dx, %ecx
	movq	%r15, %r14
	pushq	%r13
	.cfi_def_cfa_offset 32
	.cfi_offset 13, -32
	movq	%rax, %r13
	pushq	%r12
	.cfi_def_cfa_offset 40
	.cfi_offset 12, -40
	movl	%esi, %r12d
	pushq	%rbp
	.cfi_def_cfa_offset 48
	.cfi_offset 6, -48
	pushq	%rbx
	.cfi_def_cfa_offset 56
	.cfi_offset 3, -56
	movl	%edx, %ebx
	movl	%r12d, %edx
	subq	$72, %rsp
	.cfi_def_cfa_offset 128
	movq	grid(%rip), %rbp
	movq	%rdi, 32(%rsp)
	movl	%esi, 40(%rsp)
	leaq	48(%rbp), %rdi
	movq	%r8, %rsi
	call	cache_append
	movq	grid(%rip), %rdx
	movslq	%r12d, %r8
	movslq	%r13d, %rax
	leaq	0(,%r15,8), %r10
	leaq	0(,%rax,8), %r9
	movq	24(%rdx), %rcx
	movq	(%rcx,%r8,8), %rcx
	movq	(%rcx), %rcx
	movq	16(%rcx), %rcx
	movq	(%rcx,%r15,8), %rcx
	movq	(%rcx,%rax,8), %rcx
	testb	$8, (%rcx)
	je	.L717
.L707:
	testb	$2, %bl
	je	.L708
	movq	24(%rdx), %rcx
	movq	(%rcx,%r8,8), %rcx
	movq	(%rcx), %rcx
	movq	16(%rcx), %rcx
	movq	8(%rcx,%r10), %rcx
	movq	(%rcx,%rax,8), %rcx
	testb	$8, (%rcx)
	je	.L718
.L708:
	andl	$1, %ebx
	je	.L706
	movq	24(%rdx), %rax
	movq	(%rax,%r8,8), %rax
	movq	(%rax), %rax
	movq	16(%rax), %rax
	movq	(%rax,%r15,8), %rax
	movq	8(%rax,%r9), %rax
	testb	$8, (%rax)
	je	.L719
.L706:
	addq	$72, %rsp
	.cfi_remember_state
	.cfi_def_cfa_offset 56
	popq	%rbx
	.cfi_def_cfa_offset 48
	popq	%rbp
	.cfi_def_cfa_offset 40
	popq	%r12
	.cfi_def_cfa_offset 32
	popq	%r13
	.cfi_def_cfa_offset 24
	popq	%r14
	.cfi_def_cfa_offset 16
	popq	%r15
	.cfi_def_cfa_offset 8
	ret
	.p2align 4,,10
	.p2align 3
.L717:
	.cfi_restore_state
	movl	40(%rsp), %edx
	movq	32(%rsp), %rsi
	xorl	%ecx, %ecx
	leaq	64(%rbp), %rdi
	movq	%rax, 24(%rsp)
	movq	%r8, 16(%rsp)
	movq	%r9, 8(%rsp)
	movq	%r10, (%rsp)
	call	cache_append
	movq	grid(%rip), %rdx
	movq	16(%rsp), %r8
	movq	24(%rsp), %rax
	movq	8(%rsp), %r9
	movq	24(%rdx), %rcx
	movq	(%rsp), %r10
	movq	(%rcx,%r8,8), %rcx
	movq	(%rcx), %rcx
	movq	16(%rcx), %rcx
	movq	(%rcx,%r15,8), %rcx
	movq	(%rcx,%rax,8), %rcx
	orw	$8, (%rcx)
	jmp	.L707
	.p2align 4,,10
	.p2align 3
.L719:
	addl	$1, %r13d
	movl	%r14d, 52(%rsp)
	leaq	64(%rbp), %rdi
	movl	%r12d, %edx
	movl	%r13d, 56(%rsp)
	movq	52(%rsp), %rsi
	xorl	%ecx, %ecx
	movq	%r8, 8(%rsp)
	movq	%r9, (%rsp)
	movl	%r12d, 60(%rsp)
	call	cache_append
	movq	grid(%rip), %rax
	movq	8(%rsp), %r8
	movq	(%rsp), %r9
	movq	24(%rax), %rax
	movq	(%rax,%r8,8), %rax
	movq	(%rax), %rax
	movq	16(%rax), %rax
	movq	(%rax,%r15,8), %rax
	movq	8(%rax,%r9), %rax
	orw	$8, (%rax)
	addq	$72, %rsp
	.cfi_remember_state
	.cfi_def_cfa_offset 56
	popq	%rbx
	.cfi_def_cfa_offset 48
	popq	%rbp
	.cfi_def_cfa_offset 40
	popq	%r12
	.cfi_def_cfa_offset 32
	popq	%r13
	.cfi_def_cfa_offset 24
	popq	%r14
	.cfi_def_cfa_offset 16
	popq	%r15
	.cfi_def_cfa_offset 8
	ret
	.p2align 4,,10
	.p2align 3
.L718:
	.cfi_restore_state
	leal	1(%r14), %edx
	movl	%r13d, 56(%rsp)
	xorl	%ecx, %ecx
	leaq	64(%rbp), %rdi
	movl	%edx, 52(%rsp)
	movq	52(%rsp), %rsi
	movl	%r12d, %edx
	movq	%rax, 24(%rsp)
	movq	%r8, 16(%rsp)
	movq	%r9, 8(%rsp)
	movq	%r10, (%rsp)
	movl	%r12d, 60(%rsp)
	call	cache_append
	movq	grid(%rip), %rdx
	movq	16(%rsp), %r8
	movq	(%rsp), %r10
	movq	24(%rsp), %rax
	movq	24(%rdx), %rcx
	movq	8(%rsp), %r9
	movq	(%rcx,%r8,8), %rcx
	movq	(%rcx), %rcx
	movq	16(%rcx), %rcx
	movq	8(%rcx,%r10), %rcx
	movq	(%rcx,%rax,8), %rax
	orw	$8, (%rax)
	jmp	.L708
	.cfi_endproc
.LFE87:
	.size	cache_append_face, .-cache_append_face
	.p2align 4
	.type	normal_y, @function
normal_y:
.LFB385:
	.cfi_startproc
	subq	$56, %rsp
	.cfi_def_cfa_offset 64
	movq	%rdi, %rax
	sarq	$32, %rcx
	movq	grid(%rip), %rdi
	movl	%edx, 40(%rsp)
	movslq	%edx, %rdx
	addq	$1, %rcx
	movsd	.LC2(%rip), %xmm2
	movq	24(%rdi), %rdi
	movq	%rsi, 32(%rsp)
	movq	(%rdi,%rdx,8), %rdx
	movslq	%esi, %rdi
	sarq	$32, %rsi
	leaq	0(,%rdi,8), %r8
	movq	(%rdx), %rdx
	movq	16(%rdx), %rdx
	movq	(%rdx,%rdi,8), %rdi
	movq	(%rdi,%rsi,8), %rdi
	movsd	(%rdi,%rcx,8), %xmm1
	ucomisd	%xmm2, %xmm1
	jp	.L737
	movapd	%xmm1, %xmm3
	je	.L721
.L737:
	movq	-8(%rdx,%r8), %r9
	movq	.LC17(%rip), %xmm4
	movapd	%xmm1, %xmm5
	xorl	%edi, %edi
	movq	8(%rdx,%r8), %rdx
	movq	(%r9,%rsi,8), %r9
	andpd	%xmm4, %xmm5
	comisd	.LC15(%rip), %xmm5
	movq	(%rdx,%rsi,8), %rdx
	movsd	(%r9,%rcx,8), %xmm0
	seta	%dil
	movsd	(%rdx,%rcx,8), %xmm3
	ucomisd	%xmm2, %xmm0
	jp	.L738
	jne	.L738
.L723:
	ucomisd	%xmm2, %xmm3
	jp	.L740
	je	.L734
.L740:
	xorl	%edx, %edx
	andpd	%xmm3, %xmm4
	comisd	.LC15(%rip), %xmm4
	seta	%dl
	cmpl	%edx, %edi
	jne	.L735
	movapd	%xmm1, %xmm4
	subsd	%xmm3, %xmm4
.L727:
	comisd	.LC15(%rip), %xmm5
	ja	.L736
	movsd	.LC10(%rip), %xmm1
	movapd	%xmm1, %xmm3
.L729:
	movapd	%xmm4, %xmm0
	pxor	%xmm5, %xmm5
	mulsd	%xmm4, %xmm0
	addsd	%xmm1, %xmm0
	ucomisd	%xmm0, %xmm5
	ja	.L742
	sqrtsd	%xmm0, %xmm0
.L732:
	mulsd	%xmm3, %xmm0
	divsd	%xmm0, %xmm4
	divsd	%xmm0, %xmm1
	movapd	%xmm4, %xmm3
.L721:
	movsd	%xmm3, (%rax)
	movsd	%xmm1, 8(%rax)
	movsd	%xmm2, 16(%rax)
	addq	$56, %rsp
	.cfi_remember_state
	.cfi_def_cfa_offset 8
	ret
	.p2align 4,,10
	.p2align 3
.L738:
	.cfi_restore_state
	movapd	%xmm0, %xmm6
	xorl	%edx, %edx
	andpd	%xmm4, %xmm6
	comisd	.LC15(%rip), %xmm6
	seta	%dl
	cmpl	%edx, %edi
	jne	.L723
	ucomisd	%xmm2, %xmm3
	jp	.L739
	je	.L725
.L739:
	xorl	%edx, %edx
	andpd	%xmm3, %xmm4
	comisd	.LC15(%rip), %xmm4
	seta	%dl
	cmpl	%edx, %edi
	je	.L744
.L725:
	movapd	%xmm0, %xmm4
	subsd	%xmm1, %xmm4
	jmp	.L727
	.p2align 4,,10
	.p2align 3
.L734:
	movapd	%xmm3, %xmm1
	jmp	.L721
	.p2align 4,,10
	.p2align 3
.L735:
	movapd	%xmm2, %xmm3
	movapd	%xmm2, %xmm1
	jmp	.L721
	.p2align 4,,10
	.p2align 3
.L736:
	movsd	.LC23(%rip), %xmm3
	movsd	.LC10(%rip), %xmm1
	jmp	.L729
	.p2align 4,,10
	.p2align 3
.L744:
	subsd	%xmm3, %xmm0
	mulsd	.LC5(%rip), %xmm0
	movapd	%xmm0, %xmm4
	jmp	.L727
.L742:
	movq	%rax, 16(%rsp)
	movsd	%xmm1, 24(%rsp)
	movsd	%xmm3, 8(%rsp)
	movsd	%xmm4, (%rsp)
	call	sqrt
	movsd	24(%rsp), %xmm1
	movsd	8(%rsp), %xmm3
	movq	.LC2(%rip), %rax
	movsd	(%rsp), %xmm4
	movq	%rax, %xmm2
	movq	16(%rsp), %rax
	jmp	.L732
	.cfi_endproc
.LFE385:
	.size	normal_y, .-normal_y
	.p2align 4
	.type	normal_x, @function
normal_x:
.LFB386:
	.cfi_startproc
	subq	$56, %rsp
	.cfi_def_cfa_offset 64
	movq	%rdi, %rax
	movslq	%ecx, %rcx
	movq	grid(%rip), %rdi
	movl	%edx, 40(%rsp)
	movslq	%edx, %rdx
	addq	$1, %rcx
	movsd	.LC2(%rip), %xmm3
	movq	24(%rdi), %rdi
	movq	%rsi, 32(%rsp)
	movq	(%rdi,%rdx,8), %rdx
	movslq	%esi, %rdi
	sarq	$32, %rsi
	movq	(%rdx), %rdx
	movq	16(%rdx), %rdx
	movq	(%rdx,%rdi,8), %rdx
	leaq	0(,%rsi,8), %rdi
	movq	(%rdx,%rsi,8), %rsi
	movsd	(%rsi,%rcx,8), %xmm2
	ucomisd	%xmm3, %xmm2
	jp	.L762
	movapd	%xmm2, %xmm1
	je	.L746
.L762:
	movq	.LC17(%rip), %xmm4
	movq	-8(%rdx,%rdi), %r8
	movapd	%xmm2, %xmm5
	xorl	%esi, %esi
	movq	8(%rdx,%rdi), %rdx
	andpd	%xmm4, %xmm5
	comisd	.LC15(%rip), %xmm5
	movsd	(%r8,%rcx,8), %xmm0
	movsd	(%rdx,%rcx,8), %xmm1
	seta	%sil
	ucomisd	%xmm3, %xmm0
	jp	.L763
	jne	.L763
.L748:
	ucomisd	%xmm3, %xmm1
	jp	.L765
	je	.L759
.L765:
	xorl	%edx, %edx
	andpd	%xmm1, %xmm4
	comisd	.LC15(%rip), %xmm4
	seta	%dl
	cmpl	%edx, %esi
	jne	.L760
	movapd	%xmm2, %xmm4
	subsd	%xmm1, %xmm4
.L752:
	comisd	.LC15(%rip), %xmm5
	ja	.L761
	movsd	.LC10(%rip), %xmm1
	movapd	%xmm1, %xmm2
.L754:
	movapd	%xmm4, %xmm0
	pxor	%xmm5, %xmm5
	mulsd	%xmm4, %xmm0
	addsd	%xmm1, %xmm0
	ucomisd	%xmm0, %xmm5
	ja	.L767
	sqrtsd	%xmm0, %xmm0
.L757:
	mulsd	%xmm2, %xmm0
	divsd	%xmm0, %xmm4
	divsd	%xmm0, %xmm1
	movapd	%xmm4, %xmm2
.L746:
	movsd	%xmm1, (%rax)
	movsd	%xmm2, 8(%rax)
	movsd	%xmm3, 16(%rax)
	addq	$56, %rsp
	.cfi_remember_state
	.cfi_def_cfa_offset 8
	ret
	.p2align 4,,10
	.p2align 3
.L763:
	.cfi_restore_state
	movapd	%xmm0, %xmm6
	xorl	%edx, %edx
	andpd	%xmm4, %xmm6
	comisd	.LC15(%rip), %xmm6
	seta	%dl
	cmpl	%edx, %esi
	jne	.L748
	ucomisd	%xmm3, %xmm1
	jp	.L764
	je	.L750
.L764:
	xorl	%edx, %edx
	andpd	%xmm1, %xmm4
	comisd	.LC15(%rip), %xmm4
	seta	%dl
	cmpl	%edx, %esi
	je	.L769
.L750:
	movapd	%xmm0, %xmm4
	subsd	%xmm2, %xmm4
	jmp	.L752
	.p2align 4,,10
	.p2align 3
.L759:
	movapd	%xmm1, %xmm2
	jmp	.L746
	.p2align 4,,10
	.p2align 3
.L760:
	movapd	%xmm3, %xmm1
	movapd	%xmm3, %xmm2
	jmp	.L746
	.p2align 4,,10
	.p2align 3
.L761:
	movsd	.LC23(%rip), %xmm2
	movsd	.LC10(%rip), %xmm1
	jmp	.L754
	.p2align 4,,10
	.p2align 3
.L769:
	subsd	%xmm1, %xmm0
	mulsd	.LC5(%rip), %xmm0
	movapd	%xmm0, %xmm4
	jmp	.L752
.L767:
	movq	%rax, 16(%rsp)
	movsd	%xmm1, 24(%rsp)
	movsd	%xmm2, 8(%rsp)
	movsd	%xmm4, (%rsp)
	call	sqrt
	movsd	24(%rsp), %xmm1
	movsd	8(%rsp), %xmm2
	movq	.LC2(%rip), %rax
	movsd	(%rsp), %xmm4
	movq	%rax, %xmm3
	movq	16(%rsp), %rax
	jmp	.L757
	.cfi_endproc
.LFE386:
	.size	normal_x, .-normal_x
	.section	.rodata.str1.8,"aMS",@progbits,1
	.align 8
.LC24:
	.string	"%s:%d: Assertion `%s' failed.\n"
	.text
	.p2align 4
	.type	qassert, @function
qassert:
.LFB23:
	.cfi_startproc
	subq	$8, %rsp
	.cfi_def_cfa_offset 16
	movq	%rdx, %r8
	movq	%rdi, %rdx
	movl	%esi, %ecx
	movq	stderr(%rip), %rdi
	movl	$.LC24, %esi
	xorl	%eax, %eax
	call	fprintf
	call	abort
	.cfi_endproc
.LFE23:
	.size	qassert, .-qassert
	.p2align 4
	.type	cache_level_resize, @function
cache_level_resize:
.LFB90:
	.cfi_startproc
	pushq	%r13
	.cfi_def_cfa_offset 16
	.cfi_offset 13, -16
	movq	%rdi, %r13
	pushq	%r12
	.cfi_def_cfa_offset 24
	.cfi_offset 12, -24
	pushq	%rbp
	.cfi_def_cfa_offset 32
	.cfi_offset 6, -32
	pushq	%rbx
	.cfi_def_cfa_offset 40
	.cfi_offset 3, -40
	subq	$8, %rsp
	.cfi_def_cfa_offset 48
	movq	grid(%rip), %rax
	cmpl	%esi, 16(%rax)
	jl	.L773
	movl	%esi, %r12d
	movq	%rdi, %rbp
	xorl	%ebx, %ebx
	.p2align 4,,10
	.p2align 3
.L774:
	movq	0(%rbp), %rdi
	addl	$1, %ebx
	addq	$16, %rbp
	call	free
	movq	grid(%rip), %rax
	movl	16(%rax), %eax
	subl	%r12d, %eax
	cmpl	%ebx, %eax
	jge	.L774
.L773:
	movq	%r13, %rdi
	call	free
	movq	grid(%rip), %rax
	movl	$16, %esi
	movl	16(%rax), %edi
	addq	$8, %rsp
	.cfi_def_cfa_offset 40
	popq	%rbx
	.cfi_def_cfa_offset 32
	popq	%rbp
	.cfi_def_cfa_offset 24
	addl	$1, %edi
	popq	%r12
	.cfi_def_cfa_offset 16
	popq	%r13
	.cfi_def_cfa_offset 8
	movslq	%edi, %rdi
	jmp	calloc
	.cfi_endproc
.LFE90:
	.size	cache_level_resize, .-cache_level_resize
	.section	.rodata.str1.1,"aMS",@progbits,1
.LC25:
	.string	".x"
.LC26:
	.string	"%s%s"
.LC27:
	.string	".y"
	.text
	.p2align 4
	.globl	cartesian_init_vector
	.type	cartesian_init_vector, @function
cartesian_init_vector:
.LFB160:
	.cfi_startproc
	pushq	%rbp
	.cfi_def_cfa_offset 16
	.cfi_offset 6, -16
	movslq	%edi, %rax
	leaq	(%rax,%rax,4), %rdx
	movq	%rsp, %rbp
	.cfi_def_cfa_register 6
	pushq	%r15
	pushq	%r14
	pushq	%r13
	.cfi_offset 15, -24
	.cfi_offset 14, -32
	.cfi_offset 13, -40
	leaq	(%rax,%rdx,2), %r13
	pushq	%r12
	.cfi_offset 12, -48
	movq	%rdi, %r12
	salq	$4, %r13
	pushq	%rbx
	sarq	$32, %r12
	.cfi_offset 3, -56
	movq	%rdi, %rbx
	subq	$24, %rsp
	testq	%rsi, %rsi
	je	.L778
	movq	%rsp, %r8
	movl	%edi, -60(%rbp)
	movq	%rsi, %rdi
	movq	%rsi, %r14
	movq	%r8, -56(%rbp)
	call	strlen
	movl	$.LC25, %ecx
	movq	%r14, %rdx
	movl	$.LC26, %esi
	addq	$18, %rax
	andq	$-16, %rax
	subq	%rax, %rsp
	xorl	%eax, %eax
	movq	%rsp, %rdi
	call	sprintf
	movq	%rsp, %rsi
	movl	-60(%rbp), %edi
	call	*init_scalar(%rip)
	movq	_attribute(%rip), %rax
	movq	-56(%rbp), %rsp
	movq	%r14, %rdi
	addq	%r13, %rax
	movl	%ebx, 48(%rax)
	movl	%r12d, 52(%rax)
	call	strlen
	movl	$.LC27, %ecx
	movq	%r14, %rdx
	movl	$.LC26, %esi
	addq	$18, %rax
	andq	$-16, %rax
	subq	%rax, %rsp
	xorl	%eax, %eax
	movq	%rsp, %rdi
	call	sprintf
	movq	%rsp, %rsi
	movl	%r12d, %edi
	call	*init_scalar(%rip)
	movq	-56(%rbp), %rsp
.L779:
	leaq	(%r12,%r12,4), %rax
	movq	_attribute(%rip), %rdx
	leaq	(%r12,%rax,2), %rax
	salq	$4, %rax
	addq	%rdx, %rax
	movl	%ebx, 48(%rax)
	movl	%r12d, 52(%rax)
	movl	nboundary(%rip), %eax
	testl	%eax, %eax
	jle	.L783
	addq	%r13, %rdx
	movq	8(%rdx), %rdi
	movq	(%rdx), %rsi
	xorl	%edx, %edx
	.p2align 4,,10
	.p2align 3
.L782:
	movl	$antisymmetry, %ecx
	cmpq	$3, %rdx
	ja	.L781
	movq	default_vector_bc(,%rdx,8), %rcx
.L781:
	movq	%rcx, (%rdi,%rdx,8)
	movq	%rcx, (%rsi,%rdx,8)
	addq	$1, %rdx
	cmpl	%edx, %eax
	jg	.L782
.L783:
	leaq	-40(%rbp), %rsp
	salq	$32, %r12
	movl	%ebx, %eax
	orq	%r12, %rax
	popq	%rbx
	popq	%r12
	popq	%r13
	popq	%r14
	popq	%r15
	popq	%rbp
	.cfi_remember_state
	.cfi_def_cfa 7, 8
	ret
	.p2align 4,,10
	.p2align 3
.L778:
	.cfi_restore_state
	xorl	%esi, %esi
	call	*init_scalar(%rip)
	movq	_attribute(%rip), %rax
	xorl	%esi, %esi
	movl	%r12d, %edi
	addq	%r13, %rax
	movl	%ebx, 48(%rax)
	movl	%r12d, 52(%rax)
	call	*init_scalar(%rip)
	jmp	.L779
	.cfi_endproc
.LFE160:
	.size	cartesian_init_vector, .-cartesian_init_vector
	.p2align 4
	.globl	cartesian_init_face_vector
	.type	cartesian_init_face_vector, @function
cartesian_init_face_vector:
.LFB161:
	.cfi_startproc
	pushq	%r13
	.cfi_def_cfa_offset 16
	.cfi_offset 13, -16
	pushq	%r12
	.cfi_def_cfa_offset 24
	.cfi_offset 12, -24
	pushq	%rbp
	.cfi_def_cfa_offset 32
	.cfi_offset 6, -32
	pushq	%rbx
	.cfi_def_cfa_offset 40
	.cfi_offset 3, -40
	subq	$8, %rsp
	.cfi_def_cfa_offset 48
	call	cartesian_init_vector
	movq	%rax, %rbp
	movl	%eax, %ebx
	cltq
	sarq	$32, %rbp
	leaq	(%rax,%rax,4), %rdx
	leaq	(%rax,%rdx,2), %rax
	leaq	0(%rbp,%rbp,4), %rdx
	leaq	0(%rbp,%rdx,2), %rdx
	salq	$4, %rax
	addq	_attribute(%rip), %rax
	salq	$4, %rdx
	addq	_attribute(%rip), %rdx
	movl	$-1, 40(%rax)
	movl	$1, 56(%rax)
	movl	$-1, 44(%rdx)
	movl	$1, 56(%rdx)
	movslq	nboundary(%rip), %rdx
	testl	%edx, %edx
	jle	.L789
	movq	8(%rax), %rdi
	movq	(%rax), %r12
	leaq	0(,%rdx,8), %r13
	leaq	(%rdi,%r13), %rax
	cmpq	%rax, %r12
	jnb	.L793
	leaq	(%r12,%r13), %rax
	cmpq	%rax, %rdi
	jb	.L792
.L793:
	movq	%r13, %rdx
	xorl	%esi, %esi
	call	memset
	movq	%r13, %rdx
	xorl	%esi, %esi
	movq	%r12, %rdi
	call	memset
.L789:
	addq	$8, %rsp
	.cfi_remember_state
	.cfi_def_cfa_offset 40
	salq	$32, %rbp
	movl	%ebx, %eax
	orq	%rbp, %rax
	popq	%rbx
	.cfi_def_cfa_offset 32
	popq	%rbp
	.cfi_def_cfa_offset 24
	popq	%r12
	.cfi_def_cfa_offset 16
	popq	%r13
	.cfi_def_cfa_offset 8
	ret
.L792:
	.cfi_restore_state
	xorl	%eax, %eax
	.p2align 4,,10
	.p2align 3
.L790:
	movq	$0, (%rdi,%rax,8)
	movq	$0, (%r12,%rax,8)
	addq	$1, %rax
	cmpq	%rax, %rdx
	jne	.L790
	jmp	.L789
	.cfi_endproc
.LFE161:
	.size	cartesian_init_face_vector, .-cartesian_init_face_vector
	.p2align 4
	.type	multigrid_init_face_vector, @function
multigrid_init_face_vector:
.LFB201:
	.cfi_startproc
	subq	$8, %rsp
	.cfi_def_cfa_offset 16
	call	cartesian_init_face_vector
	movq	_attribute(%rip), %rdx
	movq	%rax, %rdi
	sarq	$32, %rax
	leaq	(%rax,%rax,4), %rcx
	leaq	(%rax,%rcx,2), %rax
	salq	$4, %rax
	movq	$no_restriction, 104(%rdx,%rax)
	movslq	%edi, %rax
	leaq	(%rax,%rax,4), %rcx
	leaq	(%rax,%rcx,2), %rax
	salq	$4, %rax
	movq	$restriction_face, 104(%rdx,%rax)
	movq	%rdi, %rax
	addq	$8, %rsp
	.cfi_def_cfa_offset 8
	ret
	.cfi_endproc
.LFE201:
	.size	multigrid_init_face_vector, .-multigrid_init_face_vector
	.p2align 4
	.globl	tree_init_face_vector
	.type	tree_init_face_vector, @function
tree_init_face_vector:
.LFB219:
	.cfi_startproc
	subq	$8, %rsp
	.cfi_def_cfa_offset 16
	call	cartesian_init_face_vector
	movq	%rax, %rdi
	cltq
	leaq	(%rax,%rax,4), %rdx
	leaq	(%rax,%rdx,2), %rax
	movq	%rdi, %rdx
	sarq	$32, %rdx
	salq	$4, %rax
	addq	_attribute(%rip), %rax
	leaq	(%rdx,%rdx,4), %rcx
	leaq	(%rdx,%rcx,2), %rdx
	salq	$4, %rdx
	addq	_attribute(%rip), %rdx
	movq	$no_restriction, 112(%rdx)
	movq	$no_restriction, 104(%rdx)
	movq	$restriction_face, 104(%rax)
	movq	$refine_face, 112(%rax)
	movq	$refine_face_x, 96(%rax)
	movq	%rdi, %rax
	movq	$refine_face_y, 96(%rdx)
	addq	$8, %rsp
	.cfi_def_cfa_offset 8
	ret
	.cfi_endproc
.LFE219:
	.size	tree_init_face_vector, .-tree_init_face_vector
	.p2align 4
	.globl	cartesian_init_tensor
	.type	cartesian_init_tensor, @function
cartesian_init_tensor:
.LFB162:
	.cfi_startproc
	pushq	%rbp
	.cfi_def_cfa_offset 16
	.cfi_offset 6, -16
	movq	%rsi, %rax
	sarq	$32, %rax
	movq	%rsp, %rbp
	.cfi_def_cfa_register 6
	pushq	%r15
	pushq	%r14
	pushq	%r13
	.cfi_offset 15, -24
	.cfi_offset 14, -32
	.cfi_offset 13, -40
	movq	%rdi, %r13
	pushq	%r12
	sarq	$32, %r13
	.cfi_offset 12, -48
	movq	%rdi, %r12
	pushq	%rbx
	.cfi_offset 3, -56
	movq	%rsi, %rbx
	subq	$24, %rsp
	movq	%rax, -56(%rbp)
	testq	%rdx, %rdx
	je	.L801
	movq	%rdx, %rdi
	movq	%rdx, %r14
	movq	%rsp, %r15
	call	strlen
	movl	$.LC25, %ecx
	movq	%r14, %rdx
	movl	$.LC26, %esi
	addq	$18, %rax
	andq	$-16, %rax
	subq	%rax, %rsp
	xorl	%eax, %eax
	movq	%rsp, %rdi
	call	sprintf
	movq	%rsp, %rsi
	movq	%r12, %rdi
	call	*init_vector(%rip)
	movq	%r14, %rdi
	movq	%r15, %rsp
	call	strlen
	movl	$.LC27, %ecx
	movq	%r14, %rdx
	movl	$.LC26, %esi
	addq	$18, %rax
	andq	$-16, %rax
	subq	%rax, %rsp
	xorl	%eax, %eax
	movq	%rsp, %rdi
	call	sprintf
	movq	%rsp, %rsi
	movq	%rbx, %rdi
	call	*init_vector(%rip)
	movq	%r15, %rsp
.L804:
	movl	nboundary(%rip), %eax
	testl	%eax, %eax
	jle	.L803
	movq	-56(%rbp), %rdi
	leaq	(%rdi,%rdi,4), %rdx
	leaq	(%rdi,%rdx,2), %rcx
	movslq	%r12d, %rdx
	leaq	(%rdx,%rdx,4), %rsi
	salq	$4, %rcx
	addq	_attribute(%rip), %rcx
	leaq	(%rdx,%rsi,2), %rsi
	movslq	%ebx, %rdx
	movq	8(%rcx), %r15
	leaq	(%rdx,%rdx,4), %rdi
	salq	$4, %rsi
	addq	_attribute(%rip), %rsi
	leaq	(%rdx,%rdi,2), %rdx
	movq	8(%rsi), %r14
	movq	(%rcx), %rdi
	xorl	%ecx, %ecx
	salq	$4, %rdx
	addq	_attribute(%rip), %rdx
	movq	(%rsi), %r10
	movq	(%rdx), %r11
	movq	8(%rdx), %r9
	leaq	0(%r13,%r13,4), %rdx
	leaq	0(%r13,%rdx,2), %rdx
	salq	$4, %rdx
	addq	_attribute(%rip), %rdx
	movq	8(%rdx), %r8
	movq	(%rdx), %rdx
	jmp	.L806
	.p2align 4,,10
	.p2align 3
.L811:
	movq	default_scalar_bc(,%rcx,8), %rsi
	movq	%rsi, (%r15,%rcx,8)
	movq	%rsi, (%r14,%rcx,8)
	movq	%rsi, (%r11,%rcx,8)
	movq	%rsi, (%r10,%rcx,8)
	movq	default_vector_bc(,%rcx,8), %rsi
.L807:
	movq	%rsi, (%r9,%rcx,8)
	movq	%rsi, (%r8,%rcx,8)
	movq	%rsi, (%rdi,%rcx,8)
	movq	%rsi, (%rdx,%rcx,8)
	addq	$1, %rcx
	cmpl	%ecx, %eax
	jle	.L803
.L806:
	cmpq	$3, %rcx
	jbe	.L811
	movq	$symmetry, (%r15,%rcx,8)
	movl	$antisymmetry, %esi
	movq	$symmetry, (%r14,%rcx,8)
	movq	$symmetry, (%r11,%rcx,8)
	movq	$symmetry, (%r10,%rcx,8)
	jmp	.L807
	.p2align 4,,10
	.p2align 3
.L803:
	movq	-56(%rbp), %rcx
	salq	$32, %r13
	leaq	-40(%rbp), %rsp
	movl	%r12d, %eax
	movl	%ebx, %edx
	orq	%r13, %rax
	popq	%rbx
	popq	%r12
	salq	$32, %rcx
	popq	%r13
	popq	%r14
	orq	%rcx, %rdx
	popq	%r15
	popq	%rbp
	.cfi_remember_state
	.cfi_def_cfa 7, 8
	ret
	.p2align 4,,10
	.p2align 3
.L801:
	.cfi_restore_state
	xorl	%esi, %esi
	call	*init_vector(%rip)
	xorl	%esi, %esi
	movq	%rbx, %rdi
	call	*init_vector(%rip)
	jmp	.L804
	.cfi_endproc
.LFE162:
	.size	cartesian_init_tensor, .-cartesian_init_tensor
	.p2align 4
	.globl	cartesian_init_scalar
	.type	cartesian_init_scalar, @function
cartesian_init_scalar:
.LFB158:
	.cfi_startproc
	movslq	%edi, %rax
	pushq	%r14
	.cfi_def_cfa_offset 16
	.cfi_offset 14, -16
	leaq	(%rax,%rax,4), %rdx
	pushq	%r13
	.cfi_def_cfa_offset 24
	.cfi_offset 13, -24
	movq	%rax, %r14
	pushq	%r12
	.cfi_def_cfa_offset 32
	.cfi_offset 12, -32
	pushq	%rbp
	.cfi_def_cfa_offset 40
	.cfi_offset 6, -40
	pushq	%rbx
	.cfi_def_cfa_offset 48
	.cfi_offset 3, -48
	leaq	(%rax,%rdx,2), %rbx
	salq	$4, %rbx
	addq	_attribute(%rip), %rbx
	movq	32(%rbx), %r8
	testq	%rsi, %rsi
	je	.L813
	movq	%r8, %rdi
	movq	%rsi, %rbp
	call	free
	movq	%rbp, %rdi
	call	strdup
	movq	%rax, %r8
.L813:
	movl	64(%rbx), %edx
	xorl	%eax, %eax
	movl	$22, %ecx
	movq	%rbx, %rdi
	movq	(%rbx), %r12
	movq	8(%rbx), %rbp
	rep stosq
	testl	%edx, %edx
	movl	$1, %eax
	movq	%r8, 32(%rbx)
	cmove	%eax, %edx
	movl	nboundary(%rip), %r13d
	movl	%edx, 64(%rbx)
	testq	%r12, %r12
	je	.L829
	movq	%r12, (%rbx)
	testq	%rbp, %rbp
	je	.L830
.L816:
	movq	%rbp, 8(%rbx)
	xorl	%eax, %eax
	testl	%r13d, %r13d
	jle	.L819
	.p2align 4,,10
	.p2align 3
.L817:
	movl	$symmetry, %edx
	cmpq	$3, %rax
	ja	.L818
	movq	default_scalar_bc(,%rax,8), %rdx
.L818:
	movq	%rdx, 0(%rbp,%rax,8)
	movq	%rdx, (%r12,%rax,8)
	addq	$1, %rax
	cmpl	%eax, %r13d
	jg	.L817
.L819:
	movq	$0, 16(%rbx)
	movl	%r14d, %eax
	movq	$0, 40(%rbx)
	movq	$-1, 48(%rbx)
	movl	$0, 56(%rbx)
	popq	%rbx
	.cfi_remember_state
	.cfi_def_cfa_offset 40
	popq	%rbp
	.cfi_def_cfa_offset 32
	popq	%r12
	.cfi_def_cfa_offset 24
	popq	%r13
	.cfi_def_cfa_offset 16
	popq	%r14
	.cfi_def_cfa_offset 8
	ret
	.p2align 4,,10
	.p2align 3
.L829:
	.cfi_restore_state
	movslq	%r13d, %rdi
	salq	$3, %rdi
	call	malloc
	movq	%rax, %r12
	movq	%r12, (%rbx)
	testq	%rbp, %rbp
	jne	.L816
	.p2align 4,,10
	.p2align 3
.L830:
	movslq	%r13d, %rdi
	salq	$3, %rdi
	call	malloc
	movq	%rax, %rbp
	jmp	.L816
	.cfi_endproc
.LFE158:
	.size	cartesian_init_scalar, .-cartesian_init_scalar
	.p2align 4
	.type	multigrid_init_scalar, @function
multigrid_init_scalar:
.LFB199:
	.cfi_startproc
	subq	$8, %rsp
	.cfi_def_cfa_offset 16
	call	cartesian_init_scalar
	movslq	%eax, %rdx
	leaq	(%rdx,%rdx,4), %rcx
	leaq	(%rdx,%rcx,2), %rdx
	salq	$4, %rdx
	addq	_attribute(%rip), %rdx
	movq	$refine_bilinear, 96(%rdx)
	movq	$restriction_average, 104(%rdx)
	addq	$8, %rsp
	.cfi_def_cfa_offset 8
	ret
	.cfi_endproc
.LFE199:
	.size	multigrid_init_scalar, .-multigrid_init_scalar
	.section	.rodata.str1.1
.LC28:
	.string	"[%d"
.LC29:
	.string	",%d"
	.text
	.p2align 4
	.type	write_stencil_index, @function
write_stencil_index:
.LFB178:
	.cfi_startproc
	pushq	%rbx
	.cfi_def_cfa_offset 16
	.cfi_offset 3, -16
	movq	%rdi, %rbx
	movl	(%rdi), %edx
	movl	$.LC28, %esi
	movq	stderr(%rip), %rdi
	xorl	%eax, %eax
	call	fprintf
	movl	4(%rbx), %edx
	movl	$.LC29, %esi
	xorl	%eax, %eax
	movq	stderr(%rip), %rdi
	call	fprintf
	movq	stderr(%rip), %rsi
	movl	$93, %edi
	popq	%rbx
	.cfi_def_cfa_offset 8
	jmp	fputc
	.cfi_endproc
.LFE178:
	.size	write_stencil_index, .-write_stencil_index
	.section	.rodata.str1.1
.LC30:
	.string	"PATH"
.LC31:
	.string	":"
.LC32:
	.string	"r"
	.text
	.p2align 4
	.type	which, @function
which:
.LFB260:
	.cfi_startproc
	pushq	%rbp
	.cfi_def_cfa_offset 16
	.cfi_offset 6, -16
	movq	%rsp, %rbp
	.cfi_def_cfa_register 6
	pushq	%r15
	pushq	%r14
	pushq	%r13
	pushq	%r12
	.cfi_offset 15, -24
	.cfi_offset 14, -32
	.cfi_offset 13, -40
	.cfi_offset 12, -48
	movq	%rdi, %r12
	movl	$.LC30, %edi
	pushq	%rbx
	subq	$8, %rsp
	.cfi_offset 3, -56
	call	getenv
	testq	%rax, %rax
	je	.L836
	movq	%rax, %rdi
	movq	%rax, %r13
	call	strlen
	movq	%r13, %rsi
	leaq	1(%rax), %rdx
	addq	$16, %rax
	andq	$-16, %rax
	subq	%rax, %rsp
	movq	%rsp, %rdi
	call	memcpy
	movl	$.LC31, %esi
	movq	%rsp, %rdi
	call	strtok
	movq	%rax, %r15
	testq	%rax, %rax
	jne	.L839
	jmp	.L836
	.p2align 4,,10
	.p2align 3
.L837:
	movl	$.LC31, %esi
	xorl	%edi, %edi
	call	strtok
	movq	%r13, %rsp
	movq	%rax, %r15
	testq	%rax, %rax
	je	.L836
.L839:
	movq	%r15, %rdi
	movq	%rsp, %r13
	call	strlen
	movq	%r12, %rdi
	movq	%rax, %r14
	call	strlen
	movq	%r14, %rdx
	movq	%r15, %rsi
	movq	%rax, %rbx
	leaq	17(%r14,%rax), %rax
	andq	$-16, %rax
	subq	%rax, %rsp
	movq	%rsp, %rdi
	call	memcpy
	movb	$47, (%rsp,%r14)
	movq	%r12, %rsi
	leaq	1(%rbx), %rdx
	leaq	1(%rsp,%r14), %rdi
	call	memcpy
	movl	$.LC32, %esi
	movq	%rsp, %rdi
	call	fopen
	testq	%rax, %rax
	je	.L837
	movq	%rax, %rdi
	call	fclose
	movq	%r13, %rsp
	leaq	-40(%rbp), %rsp
	movl	$1, %eax
	popq	%rbx
	popq	%r12
	popq	%r13
	popq	%r14
	popq	%r15
	popq	%rbp
	.cfi_remember_state
	.cfi_def_cfa 7, 8
	ret
	.p2align 4,,10
	.p2align 3
.L836:
	.cfi_restore_state
	leaq	-40(%rbp), %rsp
	xorl	%eax, %eax
	popq	%rbx
	popq	%r12
	popq	%r13
	popq	%r14
	popq	%r15
	popq	%rbp
	.cfi_def_cfa 7, 8
	ret
	.cfi_endproc
.LFE260:
	.size	which, .-which
	.p2align 4
	.type	ppm_fallback, @function
ppm_fallback:
.LFB261:
	.cfi_startproc
	pushq	%rbp
	.cfi_def_cfa_offset 16
	.cfi_offset 6, -16
	movq	%rsp, %rbp
	.cfi_def_cfa_register 6
	pushq	%r13
	.cfi_offset 13, -24
	movq	%rsi, %r13
	pushq	%r12
	.cfi_offset 12, -32
	movq	%rdi, %r12
	pushq	%rbx
	subq	$8, %rsp
	.cfi_offset 3, -40
	call	strlen
	movq	%r12, %rsi
	movq	%rax, %rbx
	addq	$20, %rax
	andq	$-16, %rax
	movq	%rbx, %rdx
	subq	%rax, %rsp
	movq	%rsp, %rdi
	call	memcpy
	movq	%r13, %rsi
	movq	%rsp, %rdi
	movb	$0, 4(%rsp,%rbx)
	movl	$1836085294, (%rsp,%rbx)
	call	fopen
	testq	%rax, %rax
	je	.L851
	leaq	-24(%rbp), %rsp
	popq	%rbx
	popq	%r12
	popq	%r13
	popq	%rbp
	.cfi_remember_state
	.cfi_def_cfa 7, 8
	ret
.L851:
	.cfi_restore_state
	movq	%r12, %rdi
	call	perror
	movl	$1, %edi
	call	exit
	.cfi_endproc
.LFE261:
	.size	ppm_fallback, .-ppm_fallback
	.p2align 4
	.type	kappa_y, @function
kappa_y:
.LFB383:
	.cfi_startproc
	pushq	%rbx
	.cfi_def_cfa_offset 16
	.cfi_offset 3, -16
	movslq	%esi, %rcx
	movl	$1, %esi
	pxor	%xmm0, %xmm0
	sall	%cl, %esi
	movq	%rdi, %rax
	sarq	$32, %rdx
	cvtsi2sdl	%esi, %xmm0
	sarq	$32, %rax
	subq	$48, %rsp
	.cfi_def_cfa_offset 64
	movsd	.LC10(%rip), %xmm5
	movq	grid(%rip), %rsi
	leaq	0(,%rax,8), %r11
	movl	%ecx, 40(%rsp)
	movq	.LC17(%rip), %xmm1
	movapd	%xmm5, %xmm4
	movq	24(%rsi), %rsi
	movq	%rdi, 32(%rsp)
	movslq	%edi, %rdi
	divsd	%xmm0, %xmm4
	salq	$3, %rdi
	movsd	.LC2(%rip), %xmm2
	movq	(%rsi,%rcx,8), %rcx
	movq	(%rcx), %rcx
	movq	16(%rcx), %r9
	leaq	1(%rdx), %rcx
	leaq	0(,%rcx,8), %r10
	leaq	(%r9,%rdi), %r8
	movq	(%r8), %rdx
	movq	(%rdx,%rax,8), %rdx
	movsd	(%rdx,%rcx,8), %xmm3
	movq	$-1, %rdx
	movapd	%xmm3, %xmm0
	andpd	%xmm1, %xmm0
	comisd	.LC15(%rip), %xmm0
	seta	%bl
	mulsd	L0(%rip), %xmm4
.L855:
	movq	(%r8,%rdx,8), %rsi
	movq	(%rsi,%r11), %rsi
	movsd	(%rsi,%r10), %xmm0
	ucomisd	%xmm2, %xmm0
	jp	.L857
	je	.L852
.L857:
	andpd	%xmm1, %xmm0
	comisd	.LC15(%rip), %xmm0
	seta	%sil
	cmpb	%sil, %bl
	jne	.L856
	addq	$1, %rdx
	cmpq	$2, %rdx
	jne	.L855
	movq	8(%r9,%rdi), %rdx
	movsd	.LC33(%rip), %xmm1
	movsd	%xmm4, 24(%rsp)
	movsd	%xmm3, 16(%rsp)
	movq	(%rdx,%rax,8), %rdx
	movsd	(%rdx,%rcx,8), %xmm2
	movq	-8(%r9,%rdi), %rdx
	movq	(%rdx,%rax,8), %rax
	movapd	%xmm2, %xmm0
	movsd	%xmm2, 8(%rsp)
	movsd	(%rax,%rcx,8), %xmm6
	subsd	%xmm6, %xmm0
	mulsd	.LC5(%rip), %xmm0
	movsd	%xmm6, (%rsp)
	mulsd	%xmm0, %xmm0
	addsd	%xmm5, %xmm0
	call	pow
	movsd	8(%rsp), %xmm2
	movsd	(%rsp), %xmm6
	movsd	16(%rsp), %xmm3
	movapd	%xmm0, %xmm5
	movsd	24(%rsp), %xmm4
	addsd	%xmm6, %xmm2
	addsd	%xmm3, %xmm3
	movapd	%xmm2, %xmm0
	subsd	%xmm3, %xmm0
	divsd	%xmm4, %xmm0
	divsd	%xmm5, %xmm0
.L852:
	addq	$48, %rsp
	.cfi_remember_state
	.cfi_def_cfa_offset 16
	popq	%rbx
	.cfi_def_cfa_offset 8
	ret
	.p2align 4,,10
	.p2align 3
.L856:
	.cfi_restore_state
	movapd	%xmm2, %xmm0
	jmp	.L852
	.cfi_endproc
.LFE383:
	.size	kappa_y, .-kappa_y
	.p2align 4
	.type	kappa_x, @function
kappa_x:
.LFB384:
	.cfi_startproc
	movslq	%esi, %rcx
	movl	$1, %esi
	pxor	%xmm0, %xmm0
	subq	$56, %rsp
	.cfi_def_cfa_offset 64
	sall	%cl, %esi
	movsd	.LC10(%rip), %xmm5
	movl	%ecx, 40(%rsp)
	movq	%rdi, %rax
	cvtsi2sdl	%esi, %xmm0
	movq	grid(%rip), %rsi
	sarq	$32, %rax
	movq	%rdi, 32(%rsp)
	movapd	%xmm5, %xmm4
	salq	$3, %rax
	movq	.LC17(%rip), %xmm1
	movsd	.LC2(%rip), %xmm2
	movq	24(%rsi), %rsi
	divsd	%xmm0, %xmm4
	movq	(%rsi,%rcx,8), %rcx
	movslq	%edi, %rsi
	movq	(%rcx), %rcx
	movq	16(%rcx), %rcx
	movq	(%rcx,%rsi,8), %r8
	movslq	%edx, %rcx
	addq	$1, %rcx
	leaq	(%r8,%rax), %rdi
	leaq	0(,%rcx,8), %r9
	movq	(%rdi), %rdx
	movsd	(%rdx,%rcx,8), %xmm3
	movq	$-1, %rdx
	movapd	%xmm3, %xmm0
	andpd	%xmm1, %xmm0
	comisd	.LC15(%rip), %xmm0
	seta	%r10b
	mulsd	L0(%rip), %xmm4
.L863:
	movq	(%rdi,%rdx,8), %rsi
	movsd	(%rsi,%r9), %xmm0
	ucomisd	%xmm2, %xmm0
	jp	.L865
	je	.L860
.L865:
	andpd	%xmm1, %xmm0
	comisd	.LC15(%rip), %xmm0
	seta	%sil
	cmpb	%sil, %r10b
	jne	.L864
	addq	$1, %rdx
	cmpq	$2, %rdx
	jne	.L863
	movq	8(%r8,%rax), %rdx
	movq	-8(%r8,%rax), %rax
	movsd	%xmm4, 24(%rsp)
	movsd	.LC33(%rip), %xmm1
	movsd	%xmm3, 16(%rsp)
	movsd	(%rdx,%rcx,8), %xmm2
	movsd	(%rax,%rcx,8), %xmm6
	movapd	%xmm2, %xmm0
	movsd	%xmm2, 8(%rsp)
	subsd	%xmm6, %xmm0
	mulsd	.LC5(%rip), %xmm0
	movsd	%xmm6, (%rsp)
	mulsd	%xmm0, %xmm0
	addsd	%xmm5, %xmm0
	call	pow
	movsd	8(%rsp), %xmm2
	movsd	(%rsp), %xmm6
	movsd	16(%rsp), %xmm3
	movapd	%xmm0, %xmm1
	movsd	24(%rsp), %xmm4
	addsd	%xmm6, %xmm2
	addsd	%xmm3, %xmm3
	movapd	%xmm2, %xmm0
	subsd	%xmm3, %xmm0
	divsd	%xmm4, %xmm0
	divsd	%xmm1, %xmm0
.L860:
	addq	$56, %rsp
	.cfi_remember_state
	.cfi_def_cfa_offset 8
	ret
	.p2align 4,,10
	.p2align 3
.L864:
	.cfi_restore_state
	movapd	%xmm2, %xmm0
	jmp	.L860
	.cfi_endproc
.LFE384:
	.size	kappa_x, .-kappa_x
	.section	.rodata.str1.1
.LC34:
	.string	"c->nm > c->n"
	.section	.rodata.str1.8
	.align 8
.LC35:
	.string	"/root/mnt/basilisk/src/grid/tree.h"
	.text
	.p2align 4
	.type	cache_level_shrink, @function
cache_level_shrink:
.LFB83:
	.cfi_startproc
	movl	8(%rdi), %edx
	testl	%edx, %edx
	leal	127(%rdx), %eax
	cmovns	%edx, %eax
	andl	$-128, %eax
	leal	128(%rax), %esi
	cmpl	%esi, 12(%rdi)
	jle	.L872
	pushq	%rbx
	.cfi_def_cfa_offset 16
	.cfi_offset 3, -16
	movq	%rdi, %rbx
	movl	%esi, 12(%rdi)
	cmpl	%esi, %edx
	jge	.L875
	movq	(%rdi), %rdi
	movslq	%esi, %rsi
	salq	$4, %rsi
	call	realloc
	movq	%rax, (%rbx)
	popq	%rbx
	.cfi_def_cfa_offset 8
	ret
	.p2align 4,,10
	.p2align 3
.L872:
	.cfi_restore 3
	ret
.L875:
	.cfi_def_cfa_offset 16
	.cfi_offset 3, -16
	movl	$.LC34, %edx
	movl	$200, %esi
	movl	$.LC35, %edi
	call	qassert
	.cfi_endproc
.LFE83:
	.size	cache_level_shrink, .-cache_level_shrink
	.p2align 4
	.type	velocity_grid_x_expr0, @function
velocity_grid_x_expr0:
.LFB551:
	.cfi_startproc
	movsd	.LC22(%rip), %xmm0
	addsd	(%rsi), %xmm0
	cvttsd2sil	%xmm0, %eax
	movsd	%xmm0, (%rsi)
	ret
	.cfi_endproc
.LFE551:
	.size	velocity_grid_x_expr0, .-velocity_grid_x_expr0
	.p2align 4
	.type	output_field_bolla_expr2, @function
output_field_bolla_expr2:
.LFB533:
	.cfi_startproc
	movq	$0x000000000, (%rsi)
	xorl	%eax, %eax
	ret
	.cfi_endproc
.LFE533:
	.size	output_field_bolla_expr2, .-output_field_bolla_expr2
	.p2align 4
	.type	_boundary7, @function
_boundary7:
.LFB531:
	.cfi_startproc
	pxor	%xmm0, %xmm0
	ret
	.cfi_endproc
.LFE531:
	.size	_boundary7, .-_boundary7
	.p2align 4
	.type	end_timestep, @function
end_timestep:
.LFB525:
	.cfi_startproc
	xorl	%eax, %eax
	ret
	.cfi_endproc
.LFE525:
	.size	end_timestep, .-end_timestep
	.p2align 4
	.type	viscous_term_expr0, @function
viscous_term_expr0:
.LFB491:
	.cfi_startproc
	movl	(%rdi), %eax
	movsd	(%rsi), %xmm0
	leal	1(%rax), %edx
	movl	%edx, (%rdi)
	movsd	%xmm0, (%rsi)
	ret
	.cfi_endproc
.LFE491:
	.size	viscous_term_expr0, .-viscous_term_expr0
	.p2align 4
	.type	defaults_4_expr0, @function
defaults_4_expr0:
.LFB471:
	.cfi_startproc
	movsd	(%rsi), %xmm0
	xorl	%eax, %eax
	movl	$0, (%rdi)
	movsd	%xmm0, (%rsi)
	ret
	.cfi_endproc
.LFE471:
	.size	defaults_4_expr0, .-defaults_4_expr0
	.section	.rodata.str1.1
.LC36:
	.string	"u.x"
.LC37:
	.string	"U"
.LC38:
	.string	"u.y"
.LC39:
	.string	"V"
.LC40:
	.string	"u.z"
.LC41:
	.string	"W"
	.text
	.p2align 4
	.type	replace.constprop.0, @function
replace.constprop.0:
.LFB572:
	.cfi_startproc
	pushq	%rbp
	.cfi_def_cfa_offset 16
	.cfi_offset 6, -16
	movq	%rdi, %rbp
	testb	%sil, %sil
	je	.L883
	movl	$.LC36, %esi
	call	strcmp
	testl	%eax, %eax
	je	.L894
	movl	$.LC38, %esi
	movq	%rbp, %rdi
	call	strcmp
	testl	%eax, %eax
	je	.L895
	movl	$.LC40, %esi
	movq	%rbp, %rdi
	call	strcmp
	testl	%eax, %eax
	je	.L896
.L883:
	movq	%rbp, %rdi
	call	strdup
	movzbl	(%rax), %ecx
	testb	%cl, %cl
	je	.L882
	movq	%rax, %rdx
	.p2align 4,,10
	.p2align 3
.L888:
	cmpb	$46, %cl
	jne	.L887
	movb	$95, (%rdx)
.L887:
	movzbl	1(%rdx), %ecx
	addq	$1, %rdx
	testb	%cl, %cl
	jne	.L888
.L882:
	popq	%rbp
	.cfi_remember_state
	.cfi_def_cfa_offset 8
	ret
	.p2align 4,,10
	.p2align 3
.L895:
	.cfi_restore_state
	movl	$.LC39, %edi
	popq	%rbp
	.cfi_remember_state
	.cfi_def_cfa_offset 8
	jmp	strdup
	.p2align 4,,10
	.p2align 3
.L896:
	.cfi_restore_state
	movl	$.LC41, %edi
	popq	%rbp
	.cfi_remember_state
	.cfi_def_cfa_offset 8
	jmp	strdup
	.p2align 4,,10
	.p2align 3
.L894:
	.cfi_restore_state
	movl	$.LC37, %edi
	popq	%rbp
	.cfi_def_cfa_offset 8
	jmp	strdup
	.cfi_endproc
.LFE572:
	.size	replace.constprop.0, .-replace.constprop.0
	.p2align 4
	.type	parabola_fit_add.isra.0, @function
parabola_fit_add.isra.0:
.LFB573:
	.cfi_startproc
	subsd	(%rdi), %xmm0
	subsd	8(%rdi), %xmm1
	movsd	32(%rdi), %xmm4
	movsd	24(%rdi), %xmm5
	movq	48(%rdi), %rcx
	movapd	%xmm0, %xmm3
	movapd	%xmm1, %xmm6
	mulsd	%xmm4, %xmm3
	movq	(%rcx), %rdx
	mulsd	%xmm5, %xmm6
	mulsd	%xmm5, %xmm0
	mulsd	%xmm4, %xmm1
	subsd	%xmm6, %xmm3
	addsd	%xmm0, %xmm1
	movapd	%xmm3, %xmm0
	movapd	%xmm3, %xmm4
	movapd	%xmm3, %xmm5
	mulsd	%xmm2, %xmm0
	mulsd	%xmm0, %xmm4
	mulsd	%xmm4, %xmm5
	mulsd	%xmm5, %xmm3
	addsd	(%rdx), %xmm3
	movsd	%xmm3, (%rdx)
	movq	8(%rcx), %rdx
	movsd	8(%rdx), %xmm3
	addsd	(%rdx), %xmm5
	addsd	%xmm4, %xmm3
	mulsd	%xmm1, %xmm4
	movsd	%xmm5, (%rdx)
	movsd	%xmm3, 8(%rdx)
	movq	16(%rcx), %rdx
	movsd	8(%rdx), %xmm3
	addsd	%xmm0, %xmm3
	mulsd	%xmm1, %xmm0
	mulsd	%xmm2, %xmm1
	movsd	%xmm3, 8(%rdx)
	movsd	16(%rdx), %xmm3
	addsd	%xmm2, %xmm3
	movsd	%xmm3, 16(%rdx)
	addsd	56(%rdi), %xmm4
	addsd	64(%rdi), %xmm0
	addsd	72(%rdi), %xmm1
	movsd	%xmm4, 56(%rdi)
	movsd	%xmm0, 64(%rdi)
	movsd	%xmm1, 72(%rdi)
	ret
	.cfi_endproc
.LFE573:
	.size	parabola_fit_add.isra.0, .-parabola_fit_add.isra.0
	.p2align 4
	.type	interpolate_linear.isra.0, @function
interpolate_linear.isra.0:
.LFB574:
	.cfi_startproc
	movslq	%esi, %rcx
	movl	$1, %esi
	pxor	%xmm3, %xmm3
	movl	%edx, %r8d
	sall	%cl, %esi
	movsd	.LC10(%rip), %xmm4
	movapd	%xmm0, %xmm2
	movl	%edi, %edx
	cvtsi2sdl	%esi, %xmm3
	leal	-2(%rdx), %eax
	pxor	%xmm5, %xmm5
	shrq	$32, %rdi
	movapd	%xmm4, %xmm0
	movsd	.LC5(%rip), %xmm6
	xorl	%r10d, %r10d
	divsd	%xmm3, %xmm0
	pxor	%xmm3, %xmm3
	cvtsi2sdl	%eax, %xmm3
	movslq	%r8d, %rax
	leal	-2(%rdi), %r8d
	leaq	(%rax,%rax,4), %rsi
	leaq	(%rax,%rsi,2), %rsi
	salq	$4, %rsi
	addq	_attribute(%rip), %rsi
	addsd	%xmm5, %xmm3
	addsd	%xmm6, %xmm3
	mulsd	L0(%rip), %xmm0
	mulsd	%xmm0, %xmm3
	addsd	X0(%rip), %xmm3
	subsd	%xmm3, %xmm2
	pxor	%xmm3, %xmm3
	cvtsi2sdl	40(%rsi), %xmm3
	divsd	%xmm0, %xmm2
	mulsd	%xmm6, %xmm3
	subsd	%xmm3, %xmm2
	pxor	%xmm3, %xmm3
	cvtsi2sdl	%r8d, %xmm3
	movslq	%edi, %r8
	comisd	%xmm5, %xmm2
	addsd	%xmm5, %xmm3
	seta	%r10b
	xorl	%r9d, %r9d
	addsd	%xmm6, %xmm3
	mulsd	%xmm0, %xmm3
	addsd	Y0(%rip), %xmm3
	subsd	%xmm3, %xmm1
	movapd	%xmm4, %xmm3
	divsd	%xmm0, %xmm1
	pxor	%xmm0, %xmm0
	cvtsi2sdl	44(%rsi), %xmm0
	movq	grid(%rip), %rsi
	movq	24(%rsi), %rsi
	mulsd	%xmm6, %xmm0
	movq	(%rsi,%rcx,8), %rcx
	movslq	%edx, %rsi
	leal	-1(%rdx,%r10,2), %edx
	movslq	%edx, %rdx
	movq	(%rcx), %rcx
	movq	16(%rcx), %rcx
	movq	(%rcx,%rsi,8), %rsi
	movq	(%rcx,%rdx,8), %rcx
	subsd	%xmm0, %xmm1
	movq	.LC17(%rip), %xmm0
	andpd	%xmm0, %xmm2
	comisd	%xmm5, %xmm1
	andpd	%xmm0, %xmm1
	subsd	%xmm2, %xmm3
	subsd	%xmm1, %xmm4
	seta	%r9b
	leal	-1(%rdi,%r9,2), %edx
	movq	(%rsi,%r8,8), %rdi
	movslq	%edx, %rdx
	movsd	8(%rdi,%rax,8), %xmm0
	movq	(%rcx,%r8,8), %rdi
	movq	(%rsi,%rdx,8), %rsi
	movq	(%rcx,%rdx,8), %rdx
	movsd	8(%rdi,%rax,8), %xmm5
	mulsd	%xmm3, %xmm0
	mulsd	8(%rsi,%rax,8), %xmm3
	mulsd	%xmm2, %xmm5
	mulsd	8(%rdx,%rax,8), %xmm2
	addsd	%xmm5, %xmm0
	addsd	%xmm2, %xmm3
	mulsd	%xmm4, %xmm0
	mulsd	%xmm1, %xmm3
	addsd	%xmm3, %xmm0
	ret
	.cfi_endproc
.LFE574:
	.size	interpolate_linear.isra.0, .-interpolate_linear.isra.0
	.section	.rodata.str1.8
	.align 8
.LC42:
	.string	"exec xterm -e 'gdb -p %d' & xterm -e 'gnuplot plot -'"
	.text
	.p2align 4
	.type	gdb.isra.0, @function
gdb.isra.0:
.LFB575:
	.cfi_startproc
	subq	$88, %rsp
	.cfi_def_cfa_offset 96
	movl	last_point+8(%rip), %eax
	testl	%eax, %eax
	js	.L904
	movq	last_point(%rip), %rdi
	movl	last_point+8(%rip), %esi
	call	*debug(%rip)
	movq	stderr(%rip), %rsi
	movl	$10, %edi
	call	fputc
	movq	stderr(%rip), %rdi
	call	fflush
.L904:
	call	getpid
	movq	%rsp, %rdi
	movl	$.LC42, %esi
	movl	%eax, %edx
	xorl	%eax, %eax
	call	sprintf
	movq	%rsp, %rdi
	call	system
	addq	$88, %rsp
	.cfi_def_cfa_offset 8
	ret
	.cfi_endproc
.LFE575:
	.size	gdb.isra.0, .-gdb.isra.0
	.section	.rodata.str1.8
	.align 8
.LC43:
	.string	"Caught signal %d (Floating Point Exception)\n"
	.text
	.p2align 4
	.type	caught_fpe, @function
caught_fpe:
.LFB129:
	.cfi_startproc
	subq	$8, %rsp
	.cfi_def_cfa_offset 16
	movl	%edi, %edx
	movq	stderr(%rip), %rdi
	xorl	%eax, %eax
	movl	$.LC43, %esi
	call	fprintf
	xorl	%eax, %eax
	call	gdb.isra.0
	movl	$1, %edi
	call	exit
	.cfi_endproc
.LFE129:
	.size	caught_fpe, .-caught_fpe
	.section	.rodata.str1.8
	.align 8
.LC44:
	.string	"Caught signal %d (Segmentation Fault)\n"
	.text
	.p2align 4
	.type	caught_segfault, @function
caught_segfault:
.LFB130:
	.cfi_startproc
	subq	$8, %rsp
	.cfi_def_cfa_offset 16
	movl	%edi, %edx
	movq	stderr(%rip), %rdi
	xorl	%eax, %eax
	movl	$.LC44, %esi
	call	fprintf
	xorl	%eax, %eax
	call	gdb.isra.0
	movl	$2, %edi
	call	exit
	.cfi_endproc
.LFE130:
	.size	caught_segfault, .-caught_segfault
	.section	.rodata.str1.1
.LC45:
	.string	"Caught signal %d (Aborted)\n"
	.text
	.p2align 4
	.type	caught_abort, @function
caught_abort:
.LFB128:
	.cfi_startproc
	subq	$8, %rsp
	.cfi_def_cfa_offset 16
	movl	%edi, %edx
	movq	stderr(%rip), %rdi
	xorl	%eax, %eax
	movl	$.LC45, %esi
	call	fprintf
	xorl	%eax, %eax
	addq	$8, %rsp
	.cfi_def_cfa_offset 8
	jmp	gdb.isra.0
	.cfi_endproc
.LFE128:
	.size	caught_abort, .-caught_abort
	.section	.rodata.str1.1
.LC46:
	.string	"%s:%d: error: %s\n"
	.text
	.p2align 4
	.type	event_error.isra.0, @function
event_error.isra.0:
.LFB576:
	.cfi_startproc
	subq	$8, %rsp
	.cfi_def_cfa_offset 16
	movq	%rdx, %r8
	movq	%rdi, %rdx
	movl	%esi, %ecx
	movq	stderr(%rip), %rdi
	movl	$.LC46, %esi
	xorl	%eax, %eax
	call	fprintf
	movl	$1, %edi
	call	exit
	.cfi_endproc
.LFE576:
	.size	event_error.isra.0, .-event_error.isra.0
	.section	.rodata.str1.8
	.align 8
.LC48:
	.string	"events can only use a single condition"
	.align 8
.LC49:
	.string	"events can only use a single initialisation"
	.align 8
.LC50:
	.string	"events can only use a single increment"
	.text
	.p2align 4
	.type	init_event.part.0, @function
init_event.part.0:
.LFB449:
	.cfi_startproc
	pushq	%r14
	.cfi_def_cfa_offset 16
	.cfi_offset 14, -16
	pushq	%r13
	.cfi_def_cfa_offset 24
	.cfi_offset 13, -24
	pushq	%r12
	.cfi_def_cfa_offset 32
	.cfi_offset 12, -32
	pushq	%rbp
	.cfi_def_cfa_offset 40
	.cfi_offset 6, -40
	pushq	%rbx
	.cfi_def_cfa_offset 48
	.cfi_offset 3, -48
	movq	%rdi, %rbx
	subq	$32, %rsp
	.cfi_def_cfa_offset 80
	movl	4(%rdi), %eax
	movq	16(%rdi), %r13
	testl	%eax, %eax
	jle	.L915
	xorl	%ebp, %ebp
	xorl	%r12d, %r12d
	xorl	%r13d, %r13d
	xorl	%r14d, %r14d
	jmp	.L926
	.p2align 4,,10
	.p2align 3
.L917:
	movl	%eax, 12(%rsp)
	movq	%rbx, %rdx
	leaq	24(%rsp), %rsi
	leaq	12(%rsp), %rdi
	movsd	%xmm0, 24(%rsp)
	call	*16(%rbx,%rbp,8)
	movl	8(%rsp), %eax
	cmpl	%eax, 12(%rsp)
	je	.L942
.L921:
	testq	%r12, %r12
	jne	.L943
	movq	16(%rbx,%rbp,8), %r12
.L920:
	addq	$1, %rbp
	cmpl	%ebp, 4(%rbx)
	jle	.L944
.L926:
	movq	.LC47(%rip), %rax
	movl	$-123456, 8(%rsp)
	movq	%rbx, %rdx
	leaq	16(%rsp), %rsi
	leaq	8(%rsp), %rdi
	movq	%rax, 16(%rsp)
	call	*16(%rbx,%rbp,8)
	movl	8(%rsp), %eax
	movsd	16(%rsp), %xmm0
	cmpl	$-123456, %eax
	jne	.L917
	ucomisd	.LC47(%rip), %xmm0
	jp	.L917
	jne	.L917
	testq	%r14, %r14
	jne	.L945
	movq	16(%rbx,%rbp,8), %r14
	addq	$1, %rbp
	cmpl	%ebp, 4(%rbx)
	jg	.L926
	.p2align 4,,10
	.p2align 3
.L944:
	movq	%r13, 16(%rbx)
	movq	%r14, 24(%rbx)
	movq	%r12, 32(%rbx)
	movl	$0, 4(%rbx)
.L915:
	movq	.LC23(%rip), %rax
	movl	$-1, 88(%rbx)
	movq	%rax, 80(%rbx)
	testq	%r13, %r13
	je	.L927
	leaq	80(%rbx), %rsi
	leaq	88(%rbx), %rdi
	movq	%rbx, %rdx
	call	*%r13
	cmpl	$1234567890, 88(%rbx)
	je	.L928
	movsd	.LC13(%rip), %xmm0
	ucomisd	80(%rbx), %xmm0
	jp	.L914
	jne	.L914
.L928:
	movq	.LC23(%rip), %rax
	movl	$1234567890, 88(%rbx)
	movq	%rax, 80(%rbx)
.L914:
	addq	$32, %rsp
	.cfi_remember_state
	.cfi_def_cfa_offset 48
	popq	%rbx
	.cfi_def_cfa_offset 40
	popq	%rbp
	.cfi_def_cfa_offset 32
	popq	%r12
	.cfi_def_cfa_offset 24
	popq	%r13
	.cfi_def_cfa_offset 16
	popq	%r14
	.cfi_def_cfa_offset 8
	ret
	.p2align 4,,10
	.p2align 3
.L942:
	.cfi_restore_state
	movsd	24(%rsp), %xmm0
	ucomisd	16(%rsp), %xmm0
	jp	.L921
	jne	.L921
	testq	%r13, %r13
	jne	.L946
	movq	16(%rbx,%rbp,8), %r13
	jmp	.L920
	.p2align 4,,10
	.p2align 3
.L927:
	movq	32(%rbx), %rax
	testq	%rax, %rax
	je	.L914
	leaq	80(%rbx), %rsi
	leaq	88(%rbx), %rdi
	movq	%rbx, %rdx
	call	*%rax
	cmpl	$-1, 88(%rbx)
	je	.L932
	movl	$0, 88(%rbx)
.L932:
	movsd	.LC23(%rip), %xmm1
	ucomisd	80(%rbx), %xmm1
	jp	.L936
	je	.L914
.L936:
	movq	$0x000000000, 80(%rbx)
	addq	$32, %rsp
	.cfi_remember_state
	.cfi_def_cfa_offset 48
	popq	%rbx
	.cfi_def_cfa_offset 40
	popq	%rbp
	.cfi_def_cfa_offset 32
	popq	%r12
	.cfi_def_cfa_offset 24
	popq	%r13
	.cfi_def_cfa_offset 16
	popq	%r14
	.cfi_def_cfa_offset 8
	ret
.L943:
	.cfi_restore_state
	movl	64(%rbx), %esi
	movq	56(%rbx), %rdi
	movl	$.LC50, %edx
	call	event_error.isra.0
.L946:
	movl	64(%rbx), %esi
	movq	56(%rbx), %rdi
	movl	$.LC49, %edx
	call	event_error.isra.0
.L945:
	movl	64(%rbx), %esi
	movq	56(%rbx), %rdi
	movl	$.LC48, %edx
	call	event_error.isra.0
	.cfi_endproc
.LFE449:
	.size	init_event.part.0, .-init_event.part.0
	.p2align 4
	.type	tracer_advection, @function
tracer_advection:
.LFB519:
	.cfi_startproc
	xorl	%eax, %eax
	ret
	.cfi_endproc
.LFE519:
	.size	tracer_advection, .-tracer_advection
	.p2align 4
	.type	tracer_diffusion, @function
tracer_diffusion:
.LFB521:
	.cfi_startproc
	xorl	%eax, %eax
	ret
	.cfi_endproc
.LFE521:
	.size	tracer_diffusion, .-tracer_diffusion
	.p2align 4
	.type	properties, @function
properties:
.LFB523:
	.cfi_startproc
	xorl	%eax, %eax
	ret
	.cfi_endproc
.LFE523:
	.size	properties, .-properties
	.p2align 4
	.type	output_field_fuori_expr2, @function
output_field_fuori_expr2:
.LFB535:
	.cfi_startproc
	movq	$0x000000000, (%rsi)
	xorl	%eax, %eax
	ret
	.cfi_endproc
.LFE535:
	.size	output_field_fuori_expr2, .-output_field_fuori_expr2
	.p2align 4
	.type	interface_expr2, @function
interface_expr2:
.LFB537:
	.cfi_startproc
	movq	$0x000000000, (%rsi)
	xorl	%eax, %eax
	ret
	.cfi_endproc
.LFE537:
	.size	interface_expr2, .-interface_expr2
	.p2align 4
	.type	snapshot_expr1, @function
snapshot_expr1:
.LFB539:
	.cfi_startproc
	movq	$0x000000000, (%rsi)
	xorl	%eax, %eax
	ret
	.cfi_endproc
.LFE539:
	.size	snapshot_expr1, .-snapshot_expr1
	.p2align 4
	.type	output_field_fuori_expr0, @function
output_field_fuori_expr0:
.LFB541:
	.cfi_startproc
	movsd	.LC21(%rip), %xmm0
	xorl	%eax, %eax
	comisd	(%rsi), %xmm0
	setnb	%al
	ret
	.cfi_endproc
.LFE541:
	.size	output_field_fuori_expr0, .-output_field_fuori_expr0
	.p2align 4
	.type	interface_expr0, @function
interface_expr0:
.LFB543:
	.cfi_startproc
	movsd	.LC21(%rip), %xmm0
	xorl	%eax, %eax
	comisd	(%rsi), %xmm0
	setnb	%al
	ret
	.cfi_endproc
.LFE543:
	.size	interface_expr0, .-interface_expr0
	.p2align 4
	.type	defaults_0_expr0, @function
defaults_0_expr0:
.LFB459:
	.cfi_startproc
	movsd	(%rsi), %xmm0
	xorl	%eax, %eax
	movl	$0, (%rdi)
	movsd	%xmm0, (%rsi)
	ret
	.cfi_endproc
.LFE459:
	.size	defaults_0_expr0, .-defaults_0_expr0
	.p2align 4
	.type	default_display_expr0, @function
default_display_expr0:
.LFB461:
	.cfi_startproc
	movsd	(%rsi), %xmm0
	xorl	%eax, %eax
	movl	$0, (%rdi)
	movsd	%xmm0, (%rsi)
	ret
	.cfi_endproc
.LFE461:
	.size	default_display_expr0, .-default_display_expr0
	.p2align 4
	.type	init_expr0, @function
init_expr0:
.LFB463:
	.cfi_startproc
	movsd	(%rsi), %xmm0
	xorl	%eax, %eax
	movl	$0, (%rdi)
	movsd	%xmm0, (%rsi)
	ret
	.cfi_endproc
.LFE463:
	.size	init_expr0, .-init_expr0
	.p2align 4
	.type	defaults_1_expr0, @function
defaults_1_expr0:
.LFB465:
	.cfi_startproc
	movsd	(%rsi), %xmm0
	xorl	%eax, %eax
	movl	$0, (%rdi)
	movsd	%xmm0, (%rsi)
	ret
	.cfi_endproc
.LFE465:
	.size	defaults_1_expr0, .-defaults_1_expr0
	.p2align 4
	.type	defaults_2_expr0, @function
defaults_2_expr0:
.LFB467:
	.cfi_startproc
	movsd	(%rsi), %xmm0
	xorl	%eax, %eax
	movl	$0, (%rdi)
	movsd	%xmm0, (%rsi)
	ret
	.cfi_endproc
.LFE467:
	.size	defaults_2_expr0, .-defaults_2_expr0
	.p2align 4
	.type	defaults_3_expr0, @function
defaults_3_expr0:
.LFB469:
	.cfi_startproc
	movsd	(%rsi), %xmm0
	xorl	%eax, %eax
	movl	$0, (%rdi)
	movsd	%xmm0, (%rsi)
	ret
	.cfi_endproc
.LFE469:
	.size	defaults_3_expr0, .-defaults_3_expr0
	.p2align 4
	.type	stability_0_expr0, @function
stability_0_expr0:
.LFB501:
	.cfi_startproc
	movl	(%rdi), %eax
	movsd	(%rsi), %xmm0
	leal	1(%rax), %edx
	movl	%edx, (%rdi)
	movsd	%xmm0, (%rsi)
	ret
	.cfi_endproc
.LFE501:
	.size	stability_0_expr0, .-stability_0_expr0
	.p2align 4
	.type	tracer_diffusion_expr0, @function
tracer_diffusion_expr0:
.LFB485:
	.cfi_startproc
	movl	(%rdi), %eax
	movsd	(%rsi), %xmm0
	leal	1(%rax), %edx
	movl	%edx, (%rdi)
	movsd	%xmm0, (%rsi)
	ret
	.cfi_endproc
.LFE485:
	.size	tracer_diffusion_expr0, .-tracer_diffusion_expr0
	.p2align 4
	.type	acceleration_expr0, @function
acceleration_expr0:
.LFB493:
	.cfi_startproc
	movl	(%rdi), %eax
	movsd	(%rsi), %xmm0
	leal	1(%rax), %edx
	movl	%edx, (%rdi)
	movsd	%xmm0, (%rsi)
	ret
	.cfi_endproc
.LFE493:
	.size	acceleration_expr0, .-acceleration_expr0
	.p2align 4
	.type	projection_expr0, @function
projection_expr0:
.LFB495:
	.cfi_startproc
	movl	(%rdi), %eax
	movsd	(%rsi), %xmm0
	leal	1(%rax), %edx
	movl	%edx, (%rdi)
	movsd	%xmm0, (%rsi)
	ret
	.cfi_endproc
.LFE495:
	.size	projection_expr0, .-projection_expr0
	.p2align 4
	.type	end_timestep_expr0, @function
end_timestep_expr0:
.LFB497:
	.cfi_startproc
	movl	(%rdi), %eax
	movsd	(%rsi), %xmm0
	leal	1(%rax), %edx
	movl	%edx, (%rdi)
	movsd	%xmm0, (%rsi)
	ret
	.cfi_endproc
.LFE497:
	.size	end_timestep_expr0, .-end_timestep_expr0
	.p2align 4
	.type	acceleration_0_expr0, @function
acceleration_0_expr0:
.LFB509:
	.cfi_startproc
	movl	(%rdi), %eax
	movsd	(%rsi), %xmm0
	leal	1(%rax), %edx
	movl	%edx, (%rdi)
	movsd	%xmm0, (%rsi)
	ret
	.cfi_endproc
.LFE509:
	.size	acceleration_0_expr0, .-acceleration_0_expr0
	.p2align 4
	.type	tracer_advection_0_expr0, @function
tracer_advection_0_expr0:
.LFB505:
	.cfi_startproc
	movl	(%rdi), %eax
	movsd	(%rsi), %xmm0
	leal	1(%rax), %edx
	movl	%edx, (%rdi)
	movsd	%xmm0, (%rsi)
	ret
	.cfi_endproc
.LFE505:
	.size	tracer_advection_0_expr0, .-tracer_advection_0_expr0
	.p2align 4
	.type	properties_0_expr0, @function
properties_0_expr0:
.LFB507:
	.cfi_startproc
	movl	(%rdi), %eax
	movsd	(%rsi), %xmm0
	leal	1(%rax), %edx
	movl	%edx, (%rdi)
	movsd	%xmm0, (%rsi)
	ret
	.cfi_endproc
.LFE507:
	.size	properties_0_expr0, .-properties_0_expr0
	.p2align 4
	.type	vof_0_expr0, @function
vof_0_expr0:
.LFB503:
	.cfi_startproc
	movl	(%rdi), %eax
	movsd	(%rsi), %xmm0
	leal	1(%rax), %edx
	movl	%edx, (%rdi)
	movsd	%xmm0, (%rsi)
	ret
	.cfi_endproc
.LFE503:
	.size	vof_0_expr0, .-vof_0_expr0
	.p2align 4
	.type	stability_1_expr0, @function
stability_1_expr0:
.LFB511:
	.cfi_startproc
	movl	(%rdi), %eax
	movsd	(%rsi), %xmm0
	leal	1(%rax), %edx
	movl	%edx, (%rdi)
	movsd	%xmm0, (%rsi)
	ret
	.cfi_endproc
.LFE511:
	.size	stability_1_expr0, .-stability_1_expr0
	.p2align 4
	.type	acceleration_1_expr0, @function
acceleration_1_expr0:
.LFB513:
	.cfi_startproc
	movl	(%rdi), %eax
	movsd	(%rsi), %xmm0
	leal	1(%rax), %edx
	movl	%edx, (%rdi)
	movsd	%xmm0, (%rsi)
	ret
	.cfi_endproc
.LFE513:
	.size	acceleration_1_expr0, .-acceleration_1_expr0
	.p2align 4
	.type	velocity_grid_y_expr0, @function
velocity_grid_y_expr0:
.LFB553:
	.cfi_startproc
	movsd	.LC22(%rip), %xmm0
	addsd	(%rsi), %xmm0
	cvttsd2sil	%xmm0, %eax
	movsd	%xmm0, (%rsi)
	ret
	.cfi_endproc
.LFE553:
	.size	velocity_grid_y_expr0, .-velocity_grid_y_expr0
	.p2align 4
	.type	pressure_grid_expr0, @function
pressure_grid_expr0:
.LFB555:
	.cfi_startproc
	movsd	.LC22(%rip), %xmm0
	addsd	(%rsi), %xmm0
	cvttsd2sil	%xmm0, %eax
	movsd	%xmm0, (%rsi)
	ret
	.cfi_endproc
.LFE555:
	.size	pressure_grid_expr0, .-pressure_grid_expr0
	.p2align 4
	.type	vorticity_grid_expr0, @function
vorticity_grid_expr0:
.LFB557:
	.cfi_startproc
	movsd	.LC22(%rip), %xmm0
	addsd	(%rsi), %xmm0
	cvttsd2sil	%xmm0, %eax
	movsd	%xmm0, (%rsi)
	ret
	.cfi_endproc
.LFE557:
	.size	vorticity_grid_expr0, .-vorticity_grid_expr0
	.p2align 4
	.type	adapt_expr0, @function
adapt_expr0:
.LFB499:
	.cfi_startproc
	movl	(%rdi), %eax
	movsd	(%rsi), %xmm0
	leal	1(%rax), %edx
	movl	%edx, (%rdi)
	movsd	%xmm0, (%rsi)
	ret
	.cfi_endproc
.LFE499:
	.size	adapt_expr0, .-adapt_expr0
	.p2align 4
	.type	output_field_fuori_expr1, @function
output_field_fuori_expr1:
.LFB545:
	.cfi_startproc
	movsd	.LC22(%rip), %xmm0
	addsd	(%rsi), %xmm0
	cvttsd2sil	%xmm0, %eax
	movsd	%xmm0, (%rsi)
	ret
	.cfi_endproc
.LFE545:
	.size	output_field_fuori_expr1, .-output_field_fuori_expr1
	.p2align 4
	.type	interface_expr1, @function
interface_expr1:
.LFB547:
	.cfi_startproc
	movsd	.LC22(%rip), %xmm0
	addsd	(%rsi), %xmm0
	cvttsd2sil	%xmm0, %eax
	movsd	%xmm0, (%rsi)
	ret
	.cfi_endproc
.LFE547:
	.size	interface_expr1, .-interface_expr1
	.p2align 4
	.type	stability_expr0, @function
stability_expr0:
.LFB479:
	.cfi_startproc
	movl	(%rdi), %eax
	movsd	(%rsi), %xmm0
	leal	1(%rax), %edx
	movl	%edx, (%rdi)
	movsd	%xmm0, (%rsi)
	ret
	.cfi_endproc
.LFE479:
	.size	stability_expr0, .-stability_expr0
	.p2align 4
	.type	vof_expr0, @function
vof_expr0:
.LFB481:
	.cfi_startproc
	movl	(%rdi), %eax
	movsd	(%rsi), %xmm0
	leal	1(%rax), %edx
	movl	%edx, (%rdi)
	movsd	%xmm0, (%rsi)
	ret
	.cfi_endproc
.LFE481:
	.size	vof_expr0, .-vof_expr0
	.p2align 4
	.type	tracer_advection_expr0, @function
tracer_advection_expr0:
.LFB483:
	.cfi_startproc
	movl	(%rdi), %eax
	movsd	(%rsi), %xmm0
	leal	1(%rax), %edx
	movl	%edx, (%rdi)
	movsd	%xmm0, (%rsi)
	ret
	.cfi_endproc
.LFE483:
	.size	tracer_advection_expr0, .-tracer_advection_expr0
	.p2align 4
	.type	snapshot_expr0, @function
snapshot_expr0:
.LFB549:
	.cfi_startproc
	movsd	.LC22(%rip), %xmm0
	addsd	(%rsi), %xmm0
	cvttsd2sil	%xmm0, %eax
	movsd	%xmm0, (%rsi)
	ret
	.cfi_endproc
.LFE549:
	.size	snapshot_expr0, .-snapshot_expr0
	.p2align 4
	.type	acceleration_2_expr0, @function
acceleration_2_expr0:
.LFB515:
	.cfi_startproc
	movl	(%rdi), %eax
	movsd	(%rsi), %xmm0
	leal	1(%rax), %edx
	movl	%edx, (%rdi)
	movsd	%xmm0, (%rsi)
	ret
	.cfi_endproc
.LFE515:
	.size	acceleration_2_expr0, .-acceleration_2_expr0
	.p2align 4
	.type	logfile_expr0, @function
logfile_expr0:
.LFB517:
	.cfi_startproc
	movl	(%rdi), %eax
	movsd	(%rsi), %xmm0
	leal	1(%rax), %edx
	movl	%edx, (%rdi)
	movsd	%xmm0, (%rsi)
	ret
	.cfi_endproc
.LFE517:
	.size	logfile_expr0, .-logfile_expr0
	.p2align 4
	.type	properties_expr0, @function
properties_expr0:
.LFB487:
	.cfi_startproc
	movl	(%rdi), %eax
	movsd	(%rsi), %xmm0
	leal	1(%rax), %edx
	movl	%edx, (%rdi)
	movsd	%xmm0, (%rsi)
	ret
	.cfi_endproc
.LFE487:
	.size	properties_expr0, .-properties_expr0
	.p2align 4
	.type	advection_term_expr0, @function
advection_term_expr0:
.LFB489:
	.cfi_startproc
	movl	(%rdi), %eax
	movsd	(%rsi), %xmm0
	leal	1(%rax), %edx
	movl	%edx, (%rdi)
	movsd	%xmm0, (%rsi)
	ret
	.cfi_endproc
.LFE489:
	.size	advection_term_expr0, .-advection_term_expr0
	.p2align 4
	.type	tree_init_scalar, @function
tree_init_scalar:
.LFB212:
	.cfi_startproc
	subq	$8, %rsp
	.cfi_def_cfa_offset 16
	call	cartesian_init_scalar
	movslq	%eax, %rdx
	leaq	(%rdx,%rdx,4), %rcx
	leaq	(%rdx,%rcx,2), %rdx
	salq	$4, %rdx
	addq	_attribute(%rip), %rdx
	movq	$refine_bilinear, 96(%rdx)
	movq	$restriction_average, 104(%rdx)
	movq	$refine_bilinear, 112(%rdx)
	addq	$8, %rsp
	.cfi_def_cfa_offset 8
	ret
	.cfi_endproc
.LFE212:
	.size	tree_init_scalar, .-tree_init_scalar
	.p2align 4
	.type	_boundary5, @function
_boundary5:
.LFB527:
	.cfi_startproc
	movq	grid(%rip), %rax
	movslq	%esi, %rsi
	movslq	%edi, %rdx
	movslq	%r8d, %r8
	sarq	$32, %rdi
	pxor	%xmm0, %xmm0
	movq	24(%rax), %rax
	movq	(%rax,%rsi,8), %rax
	movq	(%rax), %rax
	movq	16(%rax), %rax
	movq	(%rax,%rdx,8), %rax
	movq	(%rax,%rdi,8), %rax
	subsd	8(%rax,%r8,8), %xmm0
	ret
	.cfi_endproc
.LFE527:
	.size	_boundary5, .-_boundary5
	.p2align 4
	.type	_boundary5_homogeneous, @function
_boundary5_homogeneous:
.LFB529:
	.cfi_startproc
	movq	grid(%rip), %rax
	movslq	%esi, %rsi
	movslq	%edi, %rdx
	movslq	%r8d, %r8
	sarq	$32, %rdi
	movq	24(%rax), %rax
	movq	(%rax,%rsi,8), %rax
	movq	(%rax), %rax
	movq	16(%rax), %rax
	movq	(%rax,%rdx,8), %rax
	movq	(%rax,%rdi,8), %rax
	movsd	8(%rax,%r8,8), %xmm0
	xorpd	.LC1(%rip), %xmm0
	ret
	.cfi_endproc
.LFE529:
	.size	_boundary5_homogeneous, .-_boundary5_homogeneous
	.p2align 4
	.type	open_image_cleanup, @function
open_image_cleanup:
.LFB258:
	.cfi_startproc
	movl	open_image_data+16(%rip), %eax
	pushq	%r12
	.cfi_def_cfa_offset 16
	.cfi_offset 12, -16
	pushq	%rbp
	.cfi_def_cfa_offset 24
	.cfi_offset 6, -24
	pushq	%rbx
	.cfi_def_cfa_offset 32
	.cfi_offset 3, -32
	testl	%eax, %eax
	jle	.L991
	xorl	%ebx, %ebx
	.p2align 4,,10
	.p2align 3
.L993:
	movq	open_image_data(%rip), %rax
	leaq	0(,%rbx,8), %r12
	movq	(%rax,%rbx,8), %rdi
	movq	qpopen_pipes(%rip), %rax
	testq	%rax, %rax
	jne	.L992
	jmp	.L997
	.p2align 4,,10
	.p2align 3
.L995:
	addq	$8, %rax
.L992:
	movq	(%rax), %rdx
	testq	%rdx, %rdx
	je	.L997
	cmpq	%rdx, %rdi
	jne	.L995
	movq	$1, (%rax)
	jmp	.L995
	.p2align 4,,10
	.p2align 3
.L997:
	call	pclose
	movq	open_image_data+8(%rip), %rbp
	addq	$1, %rbx
	movq	0(%rbp,%r12), %rdi
	call	free
	cmpl	%ebx, open_image_data+16(%rip)
	jg	.L993
.L994:
	movq	open_image_data(%rip), %rdi
	call	free
	movq	%rbp, %rdi
	call	free
	popq	%rbx
	.cfi_remember_state
	.cfi_def_cfa_offset 24
	popq	%rbp
	.cfi_def_cfa_offset 16
	movq	$0, open_image_data(%rip)
	movq	$0, open_image_data+8(%rip)
	popq	%r12
	.cfi_def_cfa_offset 8
	movl	$0, open_image_data+16(%rip)
	ret
.L991:
	.cfi_restore_state
	movq	open_image_data+8(%rip), %rbp
	jmp	.L994
	.cfi_endproc
.LFE258:
	.size	open_image_cleanup, .-open_image_cleanup
	.p2align 4
	.type	multigrid_init_vertex_scalar, @function
multigrid_init_vertex_scalar:
.LFB200:
	.cfi_startproc
	pushq	%r13
	.cfi_def_cfa_offset 16
	.cfi_offset 13, -16
	movslq	%edi, %rax
	pushq	%r12
	.cfi_def_cfa_offset 24
	.cfi_offset 12, -24
	leaq	(%rax,%rax,4), %rdx
	movq	%rax, %r12
	pushq	%rbp
	.cfi_def_cfa_offset 32
	.cfi_offset 6, -32
	pushq	%rbx
	.cfi_def_cfa_offset 40
	.cfi_offset 3, -40
	leaq	(%rax,%rdx,2), %rbx
	salq	$4, %rbx
	subq	$8, %rsp
	.cfi_def_cfa_offset 48
	movslq	nboundary(%rip), %rax
	addq	_attribute(%rip), %rbx
	movq	$-1, 40(%rbx)
	testl	%eax, %eax
	jle	.L1002
	movq	8(%rbx), %rdi
	leaq	0(,%rax,8), %r13
	movq	(%rbx), %rbp
	leaq	(%rdi,%r13), %rdx
	cmpq	%rdx, %rbp
	jnb	.L1006
	leaq	0(%rbp,%r13), %rdx
	cmpq	%rdx, %rdi
	jb	.L1005
.L1006:
	movq	%r13, %rdx
	xorl	%esi, %esi
	call	memset
	movq	%r13, %rdx
	xorl	%esi, %esi
	movq	%rbp, %rdi
	call	memset
.L1002:
	movq	$restriction_vertex, 104(%rbx)
	addq	$8, %rsp
	.cfi_remember_state
	.cfi_def_cfa_offset 40
	movl	%r12d, %eax
	popq	%rbx
	.cfi_def_cfa_offset 32
	popq	%rbp
	.cfi_def_cfa_offset 24
	popq	%r12
	.cfi_def_cfa_offset 16
	popq	%r13
	.cfi_def_cfa_offset 8
	ret
.L1005:
	.cfi_restore_state
	xorl	%edx, %edx
	.p2align 4,,10
	.p2align 3
.L1003:
	movq	$0, (%rdi,%rdx,8)
	movq	$0, 0(%rbp,%rdx,8)
	addq	$1, %rdx
	cmpq	%rdx, %rax
	jne	.L1003
	jmp	.L1002
	.cfi_endproc
.LFE200:
	.size	multigrid_init_vertex_scalar, .-multigrid_init_vertex_scalar
	.p2align 4
	.type	tree_init_vertex_scalar, @function
tree_init_vertex_scalar:
.LFB214:
	.cfi_startproc
	pushq	%r13
	.cfi_def_cfa_offset 16
	.cfi_offset 13, -16
	movslq	%edi, %rax
	pushq	%r12
	.cfi_def_cfa_offset 24
	.cfi_offset 12, -24
	leaq	(%rax,%rax,4), %rdx
	movq	%rax, %r12
	pushq	%rbp
	.cfi_def_cfa_offset 32
	.cfi_offset 6, -32
	pushq	%rbx
	.cfi_def_cfa_offset 40
	.cfi_offset 3, -40
	leaq	(%rax,%rdx,2), %rbx
	salq	$4, %rbx
	subq	$8, %rsp
	.cfi_def_cfa_offset 48
	movslq	nboundary(%rip), %rax
	addq	_attribute(%rip), %rbx
	movq	$-1, 40(%rbx)
	testl	%eax, %eax
	jle	.L1010
	movq	(%rbx), %rbp
	leaq	0(,%rax,8), %r13
	movq	8(%rbx), %rdi
	leaq	0(%rbp,%r13), %rdx
	cmpq	%rdx, %rdi
	jnb	.L1014
	leaq	(%rdi,%r13), %rdx
	cmpq	%rdx, %rbp
	jb	.L1013
.L1014:
	movq	%r13, %rdx
	xorl	%esi, %esi
	call	memset
	movq	%r13, %rdx
	xorl	%esi, %esi
	movq	%rbp, %rdi
	call	memset
.L1010:
	movq	$restriction_vertex, 104(%rbx)
	movl	%r12d, %eax
	movq	$prolongation_vertex, 96(%rbx)
	movq	$prolongation_vertex, 112(%rbx)
	addq	$8, %rsp
	.cfi_remember_state
	.cfi_def_cfa_offset 40
	popq	%rbx
	.cfi_def_cfa_offset 32
	popq	%rbp
	.cfi_def_cfa_offset 24
	popq	%r12
	.cfi_def_cfa_offset 16
	popq	%r13
	.cfi_def_cfa_offset 8
	ret
.L1013:
	.cfi_restore_state
	xorl	%edx, %edx
	.p2align 4,,10
	.p2align 3
.L1011:
	movq	$0, (%rdi,%rdx,8)
	movq	$0, 0(%rbp,%rdx,8)
	addq	$1, %rdx
	cmpq	%rax, %rdx
	jne	.L1011
	jmp	.L1010
	.cfi_endproc
.LFE214:
	.size	tree_init_vertex_scalar, .-tree_init_vertex_scalar
	.section	.rodata.str1.1
.LC51:
	.string	".mp4"
.LC52:
	.string	".ogv"
.LC53:
	.string	".gif"
	.text
	.p2align 4
	.type	is_animation, @function
is_animation:
.LFB257:
	.cfi_startproc
	pushq	%r12
	.cfi_def_cfa_offset 16
	.cfi_offset 12, -16
	xorl	%r12d, %r12d
	pushq	%rbx
	.cfi_def_cfa_offset 24
	.cfi_offset 3, -24
	movq	%rdi, %rbx
	subq	$8, %rsp
	.cfi_def_cfa_offset 32
	call	strlen
	cmpl	$4, %eax
	jle	.L1017
	cltq
	movl	$.LC51, %esi
	leaq	-4(%rbx,%rax), %r12
	movq	%r12, %rdi
	call	strcmp
	testl	%eax, %eax
	jne	.L1028
.L1017:
	addq	$8, %rsp
	.cfi_remember_state
	.cfi_def_cfa_offset 24
	movq	%r12, %rax
	popq	%rbx
	.cfi_def_cfa_offset 16
	popq	%r12
	.cfi_def_cfa_offset 8
	ret
	.p2align 4,,10
	.p2align 3
.L1028:
	.cfi_restore_state
	movl	$.LC52, %esi
	movq	%r12, %rdi
	call	strcmp
	testl	%eax, %eax
	je	.L1017
	movq	%r12, %rdi
	movl	$.LC53, %esi
	call	strcmp
	testl	%eax, %eax
	movl	$0, %eax
	cmovne	%rax, %r12
	addq	$8, %rsp
	.cfi_def_cfa_offset 24
	popq	%rbx
	.cfi_def_cfa_offset 16
	movq	%r12, %rax
	popq	%r12
	.cfi_def_cfa_offset 8
	ret
	.cfi_endproc
.LFE257:
	.size	is_animation, .-is_animation
	.p2align 4
	.type	parabola_fit_init.isra.0, @function
parabola_fit_init.isra.0:
.LFB578:
	.cfi_startproc
	pushq	%rbp
	.cfi_def_cfa_offset 16
	.cfi_offset 6, -16
	pxor	%xmm4, %xmm4
	pushq	%rbx
	.cfi_def_cfa_offset 24
	.cfi_offset 3, -24
	movq	%rdi, %rbx
	subq	$24, %rsp
	.cfi_def_cfa_offset 48
	movsd	%xmm1, 8(%rdi)
	movapd	%xmm2, %xmm1
	mulsd	%xmm2, %xmm1
	movsd	%xmm0, (%rdi)
	movapd	%xmm3, %xmm0
	mulsd	%xmm3, %xmm0
	addsd	%xmm4, %xmm1
	addsd	%xmm1, %xmm0
	ucomisd	%xmm0, %xmm4
	ja	.L1034
	sqrtsd	%xmm0, %xmm0
.L1032:
	divsd	%xmm0, %xmm2
	movl	$24, %edi
	divsd	%xmm0, %xmm3
	movsd	%xmm2, 24(%rbx)
	movsd	%xmm3, 32(%rbx)
	call	malloc
	movl	$72, %edi
	movq	%rax, %rbp
	call	malloc
	pxor	%xmm0, %xmm0
	movq	%rbp, 48(%rbx)
	leaq	24(%rax), %rcx
	leaq	48(%rax), %rdx
	movq	$0, 16(%rax)
	movq	$0, 40(%rax)
	movq	$0, 64(%rax)
	movups	%xmm0, (%rax)
	movups	%xmm0, 24(%rax)
	movups	%xmm0, 48(%rax)
	movq	%rax, 0(%rbp)
	movq	%rcx, 8(%rbp)
	movq	%rdx, 16(%rbp)
	movq	$0x000000000, 56(%rbx)
	movq	$0x000000000, 64(%rbx)
	movq	$0x000000000, 72(%rbx)
	addq	$24, %rsp
	.cfi_remember_state
	.cfi_def_cfa_offset 24
	popq	%rbx
	.cfi_def_cfa_offset 16
	popq	%rbp
	.cfi_def_cfa_offset 8
	ret
.L1034:
	.cfi_restore_state
	movsd	%xmm3, 8(%rsp)
	movsd	%xmm2, (%rsp)
	call	sqrt
	movsd	8(%rsp), %xmm3
	movsd	(%rsp), %xmm2
	jmp	.L1032
	.cfi_endproc
.LFE578:
	.size	parabola_fit_init.isra.0, .-parabola_fit_init.isra.0
	.p2align 4
	.type	_boundary3_homogeneous, @function
_boundary3_homogeneous:
.LFB477:
	.cfi_startproc
	movq	grid(%rip), %rax
	movslq	%esi, %rsi
	movslq	%edi, %rdx
	movslq	%r8d, %r8
	sarq	$32, %rdi
	movq	24(%rax), %rax
	movq	(%rax,%rsi,8), %rax
	movq	(%rax), %rax
	movq	16(%rax), %rax
	movq	(%rax,%rdx,8), %rax
	movq	(%rax,%rdi,8), %rax
	movsd	8(%rax,%r8,8), %xmm0
	ret
	.cfi_endproc
.LFE477:
	.size	_boundary3_homogeneous, .-_boundary3_homogeneous
	.p2align 4
	.type	_boundary1_homogeneous, @function
_boundary1_homogeneous:
.LFB473:
	.cfi_startproc
	movq	grid(%rip), %rax
	movslq	%esi, %rsi
	movslq	%edi, %rdx
	movslq	%r8d, %r8
	sarq	$32, %rdi
	movq	24(%rax), %rax
	movq	(%rax,%rsi,8), %rax
	movq	(%rax), %rax
	movq	16(%rax), %rax
	movq	(%rax,%rdx,8), %rax
	movq	(%rax,%rdi,8), %rax
	movsd	8(%rax,%r8,8), %xmm0
	ret
	.cfi_endproc
.LFE473:
	.size	_boundary1_homogeneous, .-_boundary1_homogeneous
	.p2align 4
	.type	_boundary2_homogeneous, @function
_boundary2_homogeneous:
.LFB475:
	.cfi_startproc
	movq	grid(%rip), %rax
	movslq	%esi, %rsi
	movslq	%edi, %rdx
	movslq	%r8d, %r8
	sarq	$32, %rdi
	movq	24(%rax), %rax
	movq	(%rax,%rsi,8), %rax
	movq	(%rax), %rax
	movq	16(%rax), %rax
	movq	(%rax,%rdx,8), %rax
	movq	(%rax,%rdi,8), %rax
	movsd	8(%rax,%r8,8), %xmm0
	ret
	.cfi_endproc
.LFE475:
	.size	_boundary2_homogeneous, .-_boundary2_homogeneous
	.p2align 4
	.type	update_cache_f, @function
update_cache_f:
.LFB88:
	.cfi_startproc
	pushq	%r15
	.cfi_def_cfa_offset 16
	.cfi_offset 15, -16
	pushq	%r14
	.cfi_def_cfa_offset 24
	.cfi_offset 14, -24
	pushq	%r13
	.cfi_def_cfa_offset 32
	.cfi_offset 13, -32
	pushq	%r12
	.cfi_def_cfa_offset 40
	.cfi_offset 12, -40
	pushq	%rbp
	.cfi_def_cfa_offset 48
	.cfi_offset 6, -48
	pushq	%rbx
	.cfi_def_cfa_offset 56
	.cfi_offset 3, -56
	subq	$536, %rsp
	.cfi_def_cfa_offset 592
	movq	grid(%rip), %r9
	movl	72(%r9), %eax
	movslq	16(%r9), %rdx
	movq	%r9, %r15
	movq	24(%r9), %r11
	testl	%eax, %eax
	jle	.L1045
	movq	64(%r9), %rsi
	leal	-1(%rax), %r8d
	salq	$4, %r8
	leaq	16(%rsi), %rcx
	addq	%rcx, %r8
	.p2align 4,,10
	.p2align 3
.L1044:
	movslq	8(%rsi), %rax
	cmpl	%edx, %eax
	jg	.L1043
	movq	(%r11,%rax,8), %rax
	movslq	(%rsi), %rdi
	movq	(%rax), %rax
	cmpl	(%rax), %edi
	jl	.L1043
	cmpl	4(%rax), %edi
	jge	.L1043
	movq	16(%rax), %rbx
	leaq	0(,%rdi,8), %r10
	movq	(%rbx,%rdi,8), %rdi
	testq	%rdi, %rdi
	je	.L1043
	addq	8(%rax), %r10
	movslq	4(%rsi), %rsi
	cmpl	(%r10), %esi
	jge	.L1187
	.p2align 4,,10
	.p2align 3
.L1043:
	movq	%rcx, %rsi
	cmpq	%rcx, %r8
	je	.L1045
	addq	$16, %rcx
	jmp	.L1044
	.p2align 4,,10
	.p2align 3
.L1045:
	movl	$0, 72(%r9)
	movl	$0, 56(%r9)
	movl	$0, 40(%r9)
	testl	%edx, %edx
	js	.L1042
	salq	$4, %rdx
	movq	120(%r9), %r8
	movq	112(%r9), %rdi
	movl	$8, %eax
	movq	104(%r9), %rsi
	movq	96(%r9), %rcx
	addq	$24, %rdx
	.p2align 4,,10
	.p2align 3
.L1047:
	movl	$0, (%r8,%rax)
	movl	$0, (%rdi,%rax)
	movl	$0, (%rsi,%rax)
	movl	$0, (%rcx,%rax)
	addq	$16, %rax
	cmpq	%rax, %rdx
	jne	.L1047
.L1042:
	movl	$2, %r12d
	xorl	%r10d, %r10d
	xorl	%r14d, %r14d
	xorl	%r8d, %r8d
	movabsq	$8589934592, %rax
	movq	%r15, 24(%rsp)
	movl	%r12d, %r15d
	movl	$2, %r13d
	movq	%rax, 208(%rsp)
	leaq	32(%r9), %rax
	movq	%rax, 40(%rsp)
	leaq	48(%r9), %rax
	movq	%rax, 32(%rsp)
	leaq	64(%r9), %rax
	movq	$2, 216(%rsp)
	movq	%rax, 48(%rsp)
	.p2align 4,,10
	.p2align 3
.L1046:
	movslq	%r14d, %rbp
	leal	-1(%r8), %ebx
	leaq	0(,%rbp,8), %rax
	movq	%rax, (%rsp)
	movq	(%r11,%rbp,8), %rax
	movq	(%rax), %rax
	movl	(%rax), %edx
	cmpl	%r13d, %edx
	jg	.L1048
	cmpl	%r13d, 4(%rax)
	jle	.L1048
	movq	16(%rax), %rdi
	movslq	%r13d, %r12
	leaq	0(,%r12,8), %rsi
	movq	(%rdi,%r12,8), %rcx
	movq	%rsi, 8(%rsp)
	testq	%rcx, %rcx
	je	.L1048
	addq	8(%rax), %rsi
	cmpl	%r15d, (%rsi)
	jg	.L1048
	cmpl	%r15d, 4(%rsi)
	jle	.L1048
	movslq	%r15d, %rsi
	movq	%rsi, 16(%rsp)
	salq	$3, %rsi
	movq	%rsi, 56(%rsp)
	movq	16(%rsp), %rsi
	movq	(%rcx,%rsi,8), %rsi
	testq	%rsi, %rsi
	je	.L1048
	cmpl	$2, %r10d
	je	.L1049
	jg	.L1050
	testl	%r10d, %r10d
	je	.L1051
	cmpl	$1, %r10d
	jne	.L1048
	movslq	%r8d, %rax
	addl	$1, %r8d
	leal	1(%r14), %ecx
	salq	$4, %rax
	movl	$2, 220(%rsp,%rax)
	movslq	%r8d, %rax
	movq	%rax, %rdx
	salq	$4, %rdx
	movl	%ecx, 208(%rsp,%rdx)
	leal	-2(%r13,%r13), %ecx
	movl	%ecx, 212(%rsp,%rdx)
	leal	-1(%r15,%r15), %ecx
	movl	%ecx, 216(%rsp,%rdx)
	movl	$0, 220(%rsp,%rdx)
.L1104:
	xorl	%r10d, %r10d
	.p2align 4,,10
	.p2align 3
.L1114:
	salq	$4, %rax
	movl	208(%rsp,%rax), %r14d
	movl	212(%rsp,%rax), %r13d
	movl	216(%rsp,%rax), %r15d
	jmp	.L1046
	.p2align 4,,10
	.p2align 3
.L1051:
	leal	2(%r13), %r10d
	movl	%r10d, 68(%rsp)
	shrl	$31, %r10d
	addl	68(%rsp), %r10d
	sarl	%r10d
	movl	%r10d, 88(%rsp)
	leal	2(%r15), %r10d
	movl	%r10d, 72(%rsp)
	shrl	$31, %r10d
	addl	72(%rsp), %r10d
	sarl	%r10d
	movl	%r10d, 92(%rsp)
	movl	4(%rsi), %r10d
	movl	%r10d, 80(%rsp)
	testl	%r10d, %r10d
	je	.L1188
.L1054:
	movl	80(%rsp), %edx
	testl	%edx, %edx
	jns	.L1189
	testl	%r14d, %r14d
	jle	.L1065
	movq	(%rsp), %rdx
	movslq	88(%rsp), %r10
	movq	-8(%r11,%rdx), %rdx
	movq	(%rdx), %rdx
	movq	16(%rdx), %rdx
	movq	%rdx, 80(%rsp)
	movslq	92(%rsp), %rdx
	movq	%rdx, 96(%rsp)
	movq	80(%rsp), %rdx
	movq	(%rdx,%r10,8), %r10
	movq	96(%rsp), %rdx
	movq	(%r10,%rdx,8), %rdx
	movl	4(%rdx), %r10d
	testl	%r10d, %r10d
	je	.L1190
	testb	$2, (%rsi)
	je	.L1068
	.p2align 4,,10
	.p2align 3
.L1048:
	cmpl	$-1, %ebx
	je	.L1106
	movq	grid(%rip), %r9
.L1105:
	movslq	%ebx, %rax
	movq	24(%r9), %r11
	movl	%ebx, %r8d
	movq	%rax, %rdx
	salq	$4, %rdx
	movl	220(%rsp,%rdx), %r10d
	jmp	.L1114
	.p2align 4,,10
	.p2align 3
.L1050:
	cmpl	$3, %r10d
	jne	.L1048
	movslq	%r8d, %rax
	leal	1(%r14), %edx
	movl	%r8d, %ebx
	salq	$4, %rax
	movl	%edx, 208(%rsp,%rax)
	leal	-1(%r13,%r13), %edx
	movl	%edx, 212(%rsp,%rax)
	leal	-1(%r15,%r15), %edx
	movl	%edx, 216(%rsp,%rax)
	movl	$0, 220(%rsp,%rax)
	jmp	.L1105
	.p2align 4,,10
	.p2align 3
.L1106:
	movq	40(%rsp), %rdi
	movq	24(%rsp), %r15
	call	cache_level_shrink
	movq	32(%rsp), %rdi
	call	cache_level_shrink
	movq	48(%rsp), %rdi
	call	cache_level_shrink
	movq	grid(%rip), %rsi
	movl	16(%rsi), %ecx
	testl	%ecx, %ecx
	js	.L1107
	xorl	%ebp, %ebp
	.p2align 4,,10
	.p2align 3
.L1108:
	movq	96(%r15), %rdi
	movq	%rbp, %rbx
	addq	$1, %rbp
	salq	$4, %rbx
	addq	%rbx, %rdi
	call	cache_level_shrink
	movq	104(%r15), %rdi
	addq	%rbx, %rdi
	call	cache_level_shrink
	movq	112(%r15), %rdi
	addq	%rbx, %rdi
	call	cache_level_shrink
	addq	120(%r15), %rbx
	movq	%rbx, %rdi
	call	cache_level_shrink
	movq	grid(%rip), %rsi
	movl	16(%rsi), %ecx
	cmpl	%ebp, %ecx
	jge	.L1108
	movb	$0, 128(%r15)
	testl	%ecx, %ecx
	js	.L1109
	movslq	%ecx, %rbp
	movl	%ecx, %ebx
	salq	$3, %rbp
.L1113:
	cmpl	%ecx, %ebx
	jle	.L1191
.L1110:
	subl	$1, %ebx
	subq	$8, %rbp
	cmpl	$-1, %ebx
	jne	.L1113
.L1109:
	movslq	40(%r15), %rax
	movl	%ecx, 20(%rsi)
	movq	%rax, (%rsi)
	movq	%rax, 8(%rsi)
	addq	$536, %rsp
	.cfi_remember_state
	.cfi_def_cfa_offset 56
	popq	%rbx
	.cfi_def_cfa_offset 48
	popq	%rbp
	.cfi_def_cfa_offset 40
	popq	%r12
	.cfi_def_cfa_offset 32
	popq	%r13
	.cfi_def_cfa_offset 24
	popq	%r14
	.cfi_def_cfa_offset 16
	popq	%r15
	.cfi_def_cfa_offset 8
	ret
	.p2align 4,,10
	.p2align 3
.L1191:
	.cfi_restore_state
	cmpb	$0, 128(%rsi)
	jne	.L1192
.L1111:
	movq	112(%rsi), %rax
	leaq	(%rax,%rbp,2), %rdx
	movq	(%rdx), %rax
	movl	8(%rdx), %edx
	testl	%edx, %edx
	jle	.L1110
	movq	24(%rsi), %rdi
	subl	$1, %edx
	leaq	8(%rax,%rdx,8), %r8
	movq	(%rdi,%rbp), %rdi
	movq	(%rdi), %rdi
	movq	16(%rdi), %r9
	.p2align 4,,10
	.p2align 3
.L1112:
	movslq	(%rax), %rdx
	movslq	4(%rax), %rdi
	addq	$8, %rax
	movq	(%r9,%rdx,8), %rdx
	movq	(%rdx,%rdi,8), %rdx
	andw	$-17, (%rdx)
	cmpq	%rax, %r8
	jne	.L1112
	jmp	.L1110
	.p2align 4,,10
	.p2align 3
.L1187:
	cmpl	4(%r10), %esi
	jge	.L1043
	movq	(%rdi,%rsi,8), %rax
	testq	%rax, %rax
	je	.L1043
	andw	$-9, (%rax)
	jmp	.L1043
	.p2align 4,,10
	.p2align 3
.L1192:
	call	update_cache_f
	movq	grid(%rip), %rsi
	movl	16(%rsi), %ecx
	jmp	.L1111
	.p2align 4,,10
	.p2align 3
.L1049:
	movslq	%r8d, %rax
	addl	$1, %r8d
	leal	1(%r14), %ecx
	salq	$4, %rax
	movl	$3, 220(%rsp,%rax)
	movslq	%r8d, %rax
	movq	%rax, %rdx
	salq	$4, %rdx
	movl	%ecx, 208(%rsp,%rdx)
	leal	-1(%r13,%r13), %ecx
	movl	%ecx, 212(%rsp,%rdx)
	leal	-2(%r15,%r15), %ecx
	movl	%ecx, 216(%rsp,%rdx)
	movl	$0, 220(%rsp,%rdx)
	jmp	.L1104
	.p2align 4,,10
	.p2align 3
.L1188:
	testb	$1, (%rsi)
	jne	.L1193
.L1055:
	movq	%rbp, %rcx
	leal	3(%r13), %r10d
	movl	%ebx, 120(%rsp)
	leaq	-16(,%r12,8), %rsi
	salq	$4, %rcx
	movl	%r8d, 124(%rsp)
	movl	%r10d, %r8d
	movl	%r14d, %r10d
	movq	%rcx, 128(%rsp)
	leal	-2(%r13), %ecx
	movl	%ecx, 80(%rsp)
	leal	-2(%r15), %ecx
	movl	%ecx, 96(%rsp)
	leal	3(%r15), %ecx
	movl	96(%rsp), %r14d
	movl	%ecx, 104(%rsp)
	movl	80(%rsp), %ecx
	movl	%r13d, 80(%rsp)
	movl	%r15d, 136(%rsp)
	movq	%rbp, %r15
	movl	104(%rsp), %ebp
	movq	%r12, 112(%rsp)
	movq	%rsi, %r12
.L1064:
	movl	%r14d, %ebx
.L1061:
	cmpl	%edx, %ecx
	jl	.L1058
	cmpl	4(%rax), %ecx
	jge	.L1058
	movq	(%rdi,%r12), %rdx
	testq	%rdx, %rdx
	je	.L1058
	movq	8(%rax), %rsi
	addq	%r12, %rsi
	cmpl	(%rsi), %ebx
	jl	.L1058
	cmpl	4(%rsi), %ebx
	jge	.L1058
	movslq	%ebx, %rsi
	movq	(%rdx,%rsi,8), %rdx
	movq	%rsi, 96(%rsp)
	testq	%rdx, %rdx
	je	.L1058
	movl	4(%rdx), %r13d
	testl	%r13d, %r13d
	js	.L1194
	.p2align 4,,10
	.p2align 3
.L1058:
	addl	$1, %ebx
	cmpl	%ebx, %ebp
	je	.L1060
	movl	(%rax), %edx
	jmp	.L1061
.L1196:
	movq	112(%rsp), %r12
	movq	16(%rsp), %rsi
	movq	%r15, %rbp
	movl	%r10d, %r14d
	movl	120(%rsp), %ebx
	movl	124(%rsp), %r8d
	movq	(%rdi,%r12,8), %rcx
	movl	80(%rsp), %r13d
	movl	136(%rsp), %r15d
	movq	(%rcx,%rsi,8), %rsi
.L1063:
	testb	$2, (%rsi)
	jne	.L1195
.L1068:
	cmpl	%r14d, 16(%r9)
	jle	.L1048
	movslq	%r8d, %rax
	addl	$1, %r8d
	leal	1(%r14), %ecx
	movq	24(%r9), %r11
	salq	$4, %rax
	movl	$1, 220(%rsp,%rax)
	movslq	%r8d, %rax
	movq	%rax, %rdx
	salq	$4, %rdx
	movl	%ecx, 208(%rsp,%rdx)
	leal	-2(%r13,%r13), %ecx
	movl	%ecx, 212(%rsp,%rdx)
	leal	-2(%r15,%r15), %ecx
	movl	%ecx, 216(%rsp,%rdx)
	movl	$0, 220(%rsp,%rdx)
	jmp	.L1104
	.p2align 4,,10
	.p2align 3
.L1060:
	addl	$1, %ecx
	addq	$8, %r12
	cmpl	%ecx, %r8d
	je	.L1196
	movl	(%rax), %edx
	jmp	.L1064
	.p2align 4,,10
	.p2align 3
.L1107:
	movb	$0, 128(%r15)
	jmp	.L1109
.L1065:
	testb	$2, (%rsi)
	je	.L1068
.L1118:
	movq	(%rsp), %rsi
	movslq	88(%rsp), %r8
	movq	-8(%r11,%rsi), %rdx
	movq	(%rdx), %rdx
	movq	16(%rdx), %rsi
	movslq	92(%rsp), %rdx
	movq	(%rsi,%r8,8), %rsi
	movq	(%rsi,%rdx,8), %rdx
	movl	4(%rdx), %r8d
	testl	%r8d, %r8d
	je	.L1087
	jmp	.L1048
	.p2align 4,,10
	.p2align 3
.L1195:
	movl	4(%rsi), %edx
	testl	%edx, %edx
	je	.L1197
	js	.L1118
.L1087:
	leal	1(%r13), %r10d
	cmpl	%r13d, (%rax)
	jl	.L1088
	jne	.L1198
	movl	4(%rax), %esi
.L1091:
	cmpl	%esi, %r13d
	jge	.L1094
	testq	%rcx, %rcx
	je	.L1094
	movq	8(%rsp), %r8
	addq	8(%rax), %r8
	cmpl	%r15d, (%r8)
	jge	.L1094
	xorl	%eax, %eax
.L1119:
	cmpl	%r15d, 4(%r8)
	jl	.L1092
	movq	56(%rsp), %rsi
	movq	-8(%rcx,%rsi), %rdx
	testq	%rdx, %rdx
	je	.L1092
	movl	4(%rdx), %edi
	testl	%edi, %edi
	jne	.L1092
	testb	$2, (%rdx)
	jne	.L1092
	cmpw	$0, 2(%rdx)
	jne	.L1092
	orl	$2, %eax
	movzwl	%ax, %edx
.L1093:
	movl	%r13d, 184(%rsp)
	movl	%r14d, %esi
	movl	%r15d, 188(%rsp)
	movq	184(%rsp), %rdi
	movl	%r10d, (%rsp)
	movl	%r14d, 192(%rsp)
	call	cache_append_face
	movq	grid(%rip), %r9
	movl	(%rsp), %r10d
.L1094:
	movq	24(%r9), %rax
	movq	(%rax,%rbp,8), %rax
	movq	(%rax), %rax
	movl	(%rax), %edx
	cmpl	%r10d, %edx
	jg	.L1095
.L1115:
	cmpl	%r10d, 4(%rax)
	jle	.L1186
	movq	8(%rsp), %rsi
	movq	16(%rax), %rdx
	movq	8(%rdx,%rsi), %rdx
	leaq	8(%rsi), %rcx
	testq	%rdx, %rdx
	je	.L1186
	addq	8(%rax), %rcx
	cmpl	%r15d, (%rcx)
	jg	.L1186
	cmpl	%r15d, 4(%rcx)
	jle	.L1186
	movq	16(%rsp), %rax
	movq	(%rdx,%rax,8), %rax
	testq	%rax, %rax
	je	.L1186
	movl	4(%rax), %esi
	testl	%esi, %esi
	jne	.L1186
	testb	$2, (%rax)
	jne	.L1186
	cmpw	$0, 2(%rax)
	je	.L1103
.L1186:
	movq	24(%r9), %rax
	movq	(%rax,%rbp,8), %rax
	movq	(%rax), %rax
	movl	(%rax), %edx
.L1095:
	cmpl	%edx, %r13d
	jl	.L1048
	cmpl	%r13d, 4(%rax)
	jle	.L1048
	movq	16(%rax), %rdx
	movq	(%rdx,%r12,8), %rcx
	testq	%rcx, %rcx
	je	.L1048
	movq	8(%rsp), %rsi
	addq	8(%rax), %rsi
	leal	1(%r15), %edx
	cmpl	(%rsi), %edx
	jl	.L1048
	cmpl	4(%rsi), %edx
	jge	.L1048
	movq	56(%rsp), %rax
	movq	8(%rcx,%rax), %rax
	testq	%rax, %rax
	je	.L1048
	movl	4(%rax), %ecx
	testl	%ecx, %ecx
	jne	.L1048
	testb	$2, (%rax)
	jne	.L1048
	cmpw	$0, 2(%rax)
	jne	.L1048
	movl	%edx, 200(%rsp)
	movl	%r14d, %esi
	movl	$2, %edx
	movl	%r13d, 196(%rsp)
	movq	196(%rsp), %rdi
	movl	%r14d, 204(%rsp)
	call	cache_append_face
	jmp	.L1048
	.p2align 4,,10
	.p2align 3
.L1194:
	movzwl	(%rdx), %esi
	movw	%si, 142(%rsp)
	andl	$16, %esi
	jne	.L1058
	movq	24(%rsp), %r13
	movq	128(%rsp), %rsi
	movl	%ecx, 184(%rsp)
	movl	%ebx, 188(%rsp)
	addq	112(%r13), %rsi
	movl	%r10d, 192(%rsp)
	movl	8(%rsi), %r13d
	movq	%rsi, 152(%rsp)
	movl	%r13d, 104(%rsp)
	movq	%rsi, %r13
	movl	12(%rsi), %esi
	movq	0(%r13), %r13
	movl	%esi, 160(%rsp)
	movl	160(%rsp), %esi
	movq	%r13, 144(%rsp)
	cmpl	%esi, 104(%rsp)
	jge	.L1199
.L1059:
	movq	144(%rsp), %rsi
	movslq	104(%rsp), %r13
	leaq	(%rsi,%r13,8), %r13
	movl	104(%rsp), %esi
	movl	%ecx, 0(%r13)
	movl	%ebx, 4(%r13)
	movq	152(%rsp), %r13
	addl	$1, %esi
	movl	%esi, 8(%r13)
	movzwl	142(%rsp), %esi
	orl	$16, %esi
	movw	%si, (%rdx)
	jmp	.L1058
.L1193:
	movq	24(%rsp), %r10
	movq	%rbp, %rdx
	movl	%r13d, 184(%rsp)
	salq	$4, %rdx
	movl	%r15d, 188(%rsp)
	addq	96(%r10), %rdx
	movl	%r14d, 192(%rsp)
	movq	%rdx, %r10
	movq	%rdx, 104(%rsp)
	movl	8(%rdx), %edx
	movl	%edx, 96(%rsp)
	movq	%r10, %rdx
	movl	12(%r10), %r10d
	movl	%r10d, 120(%rsp)
	movq	(%rdx), %r10
	movq	%r10, 112(%rsp)
	movl	120(%rsp), %r10d
	cmpl	%r10d, 96(%rsp)
	jge	.L1200
.L1056:
	movq	112(%rsp), %r10
	movslq	96(%rsp), %rdx
	leaq	(%r10,%rdx,8), %rdx
	movq	104(%rsp), %r10
	movl	%r13d, (%rdx)
	movl	%r15d, 4(%rdx)
	movl	96(%rsp), %edx
	addl	$1, %edx
	movl	%edx, 8(%r10)
	jmp	.L1054
.L1190:
	movq	24(%rsp), %r10
	movq	%rbp, %rdx
	movl	%r13d, 184(%rsp)
	salq	$4, %rdx
	movl	%r15d, 188(%rsp)
	addq	120(%r10), %rdx
	movl	%r14d, 192(%rsp)
	movl	8(%rdx), %r10d
	movq	%rdx, 96(%rsp)
	movl	%r10d, 80(%rsp)
	movq	%rdx, %r10
	movl	12(%rdx), %edx
	movq	(%r10), %r10
	cmpl	%edx, 80(%rsp)
	jge	.L1201
.L1067:
	movslq	80(%rsp), %rdx
	leaq	(%r10,%rdx,8), %rdx
	movq	96(%rsp), %r10
	movl	%r13d, (%rdx)
	movl	%r15d, 4(%rdx)
	movl	80(%rsp), %edx
	addl	$1, %edx
	movl	%edx, 8(%r10)
	jmp	.L1063
.L1088:
	movl	4(%rax), %esi
	cmpl	%r13d, %esi
	jl	.L1091
	movq	8(%rsp), %r11
	movq	-8(%rdi,%r11), %rdi
	leaq	-8(%r11), %rdx
	testq	%rdi, %rdi
	je	.L1091
	movq	8(%rax), %r8
	addq	%r8, %rdx
	cmpl	%r15d, (%rdx)
	jg	.L1091
	cmpl	%r15d, 4(%rdx)
	jle	.L1091
	movq	16(%rsp), %rdx
	movq	(%rdi,%rdx,8), %rdx
	testq	%rdx, %rdx
	je	.L1091
	movl	4(%rdx), %edi
	testl	%edi, %edi
	jne	.L1091
	testb	$2, (%rdx)
	jne	.L1091
	xorl	%eax, %eax
	cmpw	$0, 2(%rdx)
	sete	%al
	cmpl	%r13d, %esi
	jle	.L1092
	testq	%rcx, %rcx
	je	.L1092
	addq	%r11, %r8
	cmpl	%r15d, (%r8)
	jl	.L1119
.L1092:
	testw	%ax, %ax
	je	.L1094
	movl	$1, %edx
	jmp	.L1093
.L1198:
	movq	24(%r9), %rax
	movq	(%rax,%rbp,8), %rax
	movq	(%rax), %rax
	cmpl	%r10d, (%rax)
	jg	.L1048
	jmp	.L1115
.L1200:
	movq	104(%rsp), %rcx
	movl	%r10d, %edx
	movq	112(%rsp), %rdi
	movl	%r8d, 124(%rsp)
	subl	$-128, %edx
	movl	%edx, 12(%rcx)
	movslq	%edx, %rdx
	leaq	0(,%rdx,8), %rsi
	call	realloc
	movq	104(%rsp), %rcx
	movq	16(%rsp), %rsi
	movq	grid(%rip), %r9
	movl	124(%rsp), %r8d
	movq	%rax, 112(%rsp)
	movq	%rax, (%rcx)
	movl	8(%rcx), %eax
	movq	24(%r9), %r11
	movl	%eax, 96(%rsp)
	movq	(%r11,%rbp,8), %rax
	movq	(%rax), %rax
	movq	16(%rax), %rdi
	movq	(%rdi,%r12,8), %rcx
	movq	(%rcx,%rsi,8), %rsi
	movl	4(%rsi), %edx
	movl	%edx, 80(%rsp)
	jmp	.L1056
.L1197:
	movl	%r13d, 184(%rsp)
	movq	40(%rsp), %rdi
	xorl	%ecx, %ecx
	movl	%r14d, %edx
	movl	%r15d, 188(%rsp)
	movq	184(%rsp), %rsi
	movl	%r14d, 192(%rsp)
	call	cache_append
	movq	grid(%rip), %r9
	movq	8(%rsp), %rcx
	movq	24(%r9), %rax
	movq	(%rax,%rbp,8), %rax
	movq	(%rax), %rax
	movq	16(%rax), %rax
	movq	-8(%rax,%rcx), %rdx
	movq	16(%rsp), %rcx
	movq	(%rdx,%rcx,8), %rcx
	movl	$1, %edx
	movl	4(%rcx), %r10d
	testl	%r10d, %r10d
	js	.L1070
	testb	$2, (%rcx)
	jne	.L1070
	xorl	%edx, %edx
	cmpw	$0, 2(%rcx)
	sete	%dl
.L1070:
	movq	(%rax,%r12,8), %rcx
	movq	56(%rsp), %rsi
	movq	-8(%rcx,%rsi), %rcx
	movl	4(%rcx), %r9d
	testl	%r9d, %r9d
	js	.L1071
	testb	$2, (%rcx)
	jne	.L1071
	cmpw	$0, 2(%rcx)
	je	.L1071
	testw	%dx, %dx
	jne	.L1073
.L1074:
	movq	8(%rsp), %rcx
	movq	8(%rax,%rcx), %rdx
	movq	16(%rsp), %rcx
	movq	(%rdx,%rcx,8), %rdx
	movl	4(%rdx), %ecx
	testl	%ecx, %ecx
	js	.L1075
	testb	$2, (%rdx)
	jne	.L1076
	cmpw	$0, 2(%rdx)
	jne	.L1077
.L1075:
	leal	1(%r13), %eax
	movl	%r15d, 200(%rsp)
	movq	32(%rsp), %rdi
	movl	%r14d, %edx
	movl	%eax, 196(%rsp)
	movq	196(%rsp), %rsi
	movl	$1, %ecx
	movl	%r14d, 204(%rsp)
	call	cache_append
	movq	grid(%rip), %r9
	movq	24(%r9), %rax
	movq	(%rax,%rbp,8), %rax
	movq	(%rax), %rax
	movq	16(%rax), %rax
.L1077:
	movq	(%rax,%r12,8), %rdx
	movq	56(%rsp), %rcx
	movq	8(%rdx,%rcx), %rcx
	movl	4(%rcx), %esi
	testl	%esi, %esi
	js	.L1078
	testb	$2, (%rcx)
	jne	.L1079
	cmpw	$0, 2(%rcx)
	jne	.L1080
.L1078:
	leal	1(%r15), %eax
	movq	32(%rsp), %rdi
	movl	%r14d, %edx
	movl	$2, %ecx
	movl	%eax, 200(%rsp)
	movl	%r13d, 196(%rsp)
	movq	196(%rsp), %rsi
	movl	%r14d, 204(%rsp)
	call	cache_append
	movq	grid(%rip), %r9
	movq	24(%r9), %rax
	movq	(%rax,%rbp,8), %rax
	movq	(%rax), %rax
	movq	16(%rax), %rax
	movq	(%rax,%r12,8), %rdx
.L1080:
	movq	8(%rsp), %r9
	movl	%ebx, %r10d
	movq	%rax, %rcx
	movq	56(%rsp), %rbx
	movl	%r14d, %eax
	movl	72(%rsp), %r14d
	movq	%rbp, %r8
	movl	%r13d, %r11d
	movq	%r9, %rsi
	movl	%r15d, %ebp
	movq	%r12, %r9
	movq	%rsi, %r12
.L1085:
	movq	(%rdx,%rbx), %rdx
	testb	$8, (%rdx)
	je	.L1202
.L1081:
	addl	$1, %ebp
	addq	$8, %rbx
	cmpl	%ebp, %r14d
	jne	.L1082
	addq	$8, %r12
	addl	$1, %r13d
	cmpl	%r13d, 68(%rsp)
	je	.L1083
	movq	(%rcx,%r12), %rdx
	movq	56(%rsp), %rbx
	movl	%r15d, %ebp
	jmp	.L1085
.L1082:
	movq	(%rcx,%r12), %rdx
	jmp	.L1085
.L1202:
	movl	%ebp, 200(%rsp)
	movq	48(%rsp), %rdi
	movl	%eax, %edx
	xorl	%ecx, %ecx
	movl	%r13d, 196(%rsp)
	movq	196(%rsp), %rsi
	movl	%r11d, 92(%rsp)
	movl	%r10d, 88(%rsp)
	movq	%r9, 80(%rsp)
	movq	%r8, 72(%rsp)
	movl	%eax, 204(%rsp)
	movl	%eax, 8(%rsp)
	call	cache_append
	movq	grid(%rip), %rdx
	movq	(%rsp), %rax
	movl	92(%rsp), %r11d
	movl	88(%rsp), %r10d
	movq	24(%rdx), %rdx
	movq	80(%rsp), %r9
	movq	72(%rsp), %r8
	movq	(%rdx,%rax), %rdx
	movl	8(%rsp), %eax
	movq	(%rdx), %rdx
	movq	16(%rdx), %rcx
	movq	(%rcx,%r12), %rdx
	movq	(%rdx,%rbx), %rdx
	orw	$8, (%rdx)
	jmp	.L1081
.L1083:
	movq	(%rcx,%r9,8), %rax
	movq	16(%rsp), %rcx
	movq	%r8, %rbp
	movl	%r10d, %ebx
	movl	%r11d, %r13d
	movq	(%rax,%rcx,8), %rax
	cmpw	$0, 2(%rax)
	je	.L1048
	movq	24(%rsp), %rax
	salq	$4, %rbp
	addq	104(%rax), %rbp
	movl	8(%rbp), %edx
	movl	12(%rbp), %eax
	movq	0(%rbp), %rdi
	cmpl	%eax, %edx
	jge	.L1203
.L1086:
	movslq	%edx, %rax
	addl	$1, %edx
	leaq	(%rdi,%rax,8), %rax
	movl	%r13d, (%rax)
	movl	%r15d, 4(%rax)
	movl	%edx, 8(%rbp)
	jmp	.L1048
.L1071:
	orl	$2, %edx
.L1073:
	movzwl	%dx, %ecx
	movq	184(%rsp), %rsi
	movq	32(%rsp), %rdi
	movl	192(%rsp), %edx
	call	cache_append
	movq	grid(%rip), %r9
	movq	24(%r9), %rax
	movq	(%rax,%rbp,8), %rax
	movq	(%rax), %rax
	movq	16(%rax), %rax
	jmp	.L1074
.L1201:
	movq	96(%rsp), %rax
	subl	$-128, %edx
	movq	%r10, %rdi
	movl	%r8d, 104(%rsp)
	movl	%edx, 12(%rax)
	movslq	%edx, %rdx
	leaq	0(,%rdx,8), %rsi
	call	realloc
	movq	16(%rsp), %rsi
	movl	104(%rsp), %r8d
	movq	%rax, %r10
	movq	grid(%rip), %r9
	movq	96(%rsp), %rax
	movq	24(%r9), %r11
	movq	%r10, (%rax)
	movl	8(%rax), %eax
	movl	%eax, 80(%rsp)
	movq	(%r11,%rbp,8), %rax
	movq	(%rax), %rax
	movq	16(%rax), %rdi
	movq	(%rdi,%r12,8), %rcx
	movq	(%rcx,%rsi,8), %rsi
	jmp	.L1067
.L1076:
	testl	%ecx, %ecx
	je	.L1077
	jmp	.L1075
.L1079:
	testl	%esi, %esi
	je	.L1080
	jmp	.L1078
.L1189:
	movl	(%rax), %edx
	jmp	.L1055
.L1199:
	movq	152(%rsp), %r13
	movl	%esi, %eax
	movq	144(%rsp), %rdi
	movl	%r10d, 172(%rsp)
	subl	$-128, %eax
	movl	%ecx, 168(%rsp)
	movl	%eax, 12(%r13)
	cltq
	leaq	0(,%rax,8), %rsi
	movl	%r8d, 164(%rsp)
	call	realloc
	movq	grid(%rip), %r9
	movq	96(%rsp), %rsi
	movl	8(%r13), %ecx
	movq	%rax, 144(%rsp)
	movq	24(%r9), %r11
	movq	%rax, 0(%r13)
	movq	(%rsp), %rax
	movl	%ecx, 104(%rsp)
	movl	172(%rsp), %r10d
	movl	168(%rsp), %ecx
	movq	(%r11,%rax), %rax
	movl	164(%rsp), %r8d
	movq	(%rax), %rax
	movq	16(%rax), %rdi
	movq	(%rdi,%r12), %rdx
	movq	(%rdx,%rsi,8), %rdx
	movzwl	(%rdx), %esi
	movw	%si, 142(%rsp)
	jmp	.L1059
.L1203:
	subl	$-128, %eax
	movl	%eax, 12(%rbp)
	cltq
	leaq	0(,%rax,8), %rsi
	call	realloc
	movl	8(%rbp), %edx
	movq	%rax, 0(%rbp)
	movq	%rax, %rdi
	jmp	.L1086
.L1103:
	movl	%r10d, 196(%rsp)
	movl	$1, %edx
	movl	%r14d, %esi
	movl	%r15d, 200(%rsp)
	movq	196(%rsp), %rdi
	movl	%r14d, 204(%rsp)
	call	cache_append_face
	movq	grid(%rip), %r9
	jmp	.L1186
	.cfi_endproc
.LFE88:
	.size	update_cache_f, .-update_cache_f
	.p2align 4
	.type	halo_face, @function
halo_face:
.LFB211:
	.cfi_startproc
	pushq	%r15
	.cfi_def_cfa_offset 16
	.cfi_offset 15, -16
	pushq	%r14
	.cfi_def_cfa_offset 24
	.cfi_offset 14, -24
	movq	%rdi, %r14
	pushq	%r13
	.cfi_def_cfa_offset 32
	.cfi_offset 13, -32
	pushq	%r12
	.cfi_def_cfa_offset 40
	.cfi_offset 12, -40
	pushq	%rbp
	.cfi_def_cfa_offset 48
	.cfi_offset 6, -48
	pushq	%rbx
	.cfi_def_cfa_offset 56
	.cfi_offset 3, -56
	subq	$40, %rsp
	.cfi_def_cfa_offset 96
	movq	%rsi, (%rsp)
	testq	%rdi, %rdi
	je	.L1208
	movslq	(%rdi), %rax
	testl	%eax, %eax
	js	.L1208
	movq	_attribute(%rip), %rsi
	movq	%rdi, %rdx
	.p2align 4,,10
	.p2align 3
.L1209:
	leaq	(%rax,%rax,4), %rcx
	addq	$4, %rdx
	leaq	(%rax,%rcx,2), %rax
	salq	$4, %rax
	movl	$2, 88(%rsi,%rax)
	movslq	(%rdx), %rax
	testl	%eax, %eax
	jns	.L1209
.L1208:
	cmpq	$0, (%rsp)
	je	.L1207
	movq	(%rsp), %rdx
	movslq	(%rdx), %rax
	testl	%eax, %eax
	js	.L1207
	movq	_attribute(%rip), %rsi
	.p2align 4,,10
	.p2align 3
.L1212:
	leaq	(%rax,%rax,4), %rcx
	addq	$4, %rdx
	leaq	(%rax,%rcx,2), %rax
	salq	$4, %rax
	movl	$2, 88(%rsi,%rax)
	movslq	(%rdx), %rax
	testl	%eax, %eax
	jns	.L1212
.L1207:
	movq	grid(%rip), %rbp
	movl	16(%rbp), %eax
	movl	%eax, %r15d
	subl	$1, %r15d
	js	.L1204
	movslq	%r15d, %rbx
	movsd	.LC5(%rip), %xmm1
	salq	$3, %rbx
	jmp	.L1211
	.p2align 4,,10
	.p2align 3
.L1216:
	subl	$1, %r15d
	subq	$8, %rbx
	cmpl	$-1, %r15d
	je	.L1204
.L1214:
	movl	16(%rbp), %eax
.L1211:
	cmpl	%eax, %r15d
	jg	.L1216
	cmpb	$0, 128(%rbp)
	jne	.L1240
.L1215:
	movq	104(%rbp), %rax
	leaq	(%rax,%rbx,2), %rdx
	movq	(%rdx), %rax
	movl	8(%rdx), %edx
	testl	%edx, %edx
	jle	.L1216
	leaq	8(%rbx), %rcx
	subl	$1, %edx
	movl	%r15d, 28(%rsp)
	movsd	.LC5(%rip), %xmm2
	movq	%rcx, 16(%rsp)
	leaq	8(%rax,%rdx,8), %rcx
	movq	%rcx, 8(%rsp)
	.p2align 4,,10
	.p2align 3
.L1226:
	movl	(%rax), %esi
	movl	4(%rax), %ecx
	testq	%r14, %r14
	je	.L1222
	movq	24(%rbp), %r11
	movslq	%esi, %r10
	movslq	%ecx, %r8
	leaq	0(,%r10,8), %r9
	movq	(%r11,%rbx), %rdx
	movq	(%rdx), %rdx
	movq	16(%rdx), %rdi
	movq	-8(%rdi,%r9), %rdx
	movq	(%rdx,%r8,8), %rdx
	testb	$2, (%rdx)
	jne	.L1223
	cmpw	$0, 2(%rdx)
	je	.L1223
	movl	4(%rdx), %r13d
	testl	%r13d, %r13d
	jns	.L1241
	.p2align 4,,10
	.p2align 3
.L1223:
	movq	8(%rdi,%r9), %rdx
	movq	(%rdx,%r8,8), %rdi
	testb	$2, (%rdi)
	jne	.L1222
	cmpw	$0, 2(%rdi)
	je	.L1222
	movl	4(%rdi), %r12d
	testl	%r12d, %r12d
	jns	.L1242
	.p2align 4,,10
	.p2align 3
.L1222:
	cmpq	$0, (%rsp)
	je	.L1219
	movq	24(%rbp), %r9
	movslq	%ecx, %r10
	leaq	0(,%r10,8), %r8
	movq	(%r9,%rbx), %rdx
	movq	(%rdx), %rdi
	movslq	%esi, %rdx
	movq	16(%rdi), %rdi
	movq	(%rdi,%rdx,8), %rdi
	movq	-8(%rdi,%r8), %rdx
	testb	$2, (%rdx)
	jne	.L1229
	cmpw	$0, 2(%rdx)
	je	.L1229
	movl	4(%rdx), %r11d
	testl	%r11d, %r11d
	jns	.L1243
	.p2align 4,,10
	.p2align 3
.L1229:
	movq	8(%rdi,%r8), %rdi
	testb	$2, (%rdi)
	jne	.L1219
	cmpw	$0, 2(%rdi)
	je	.L1219
	movl	4(%rdi), %edx
	testl	%edx, %edx
	jns	.L1244
	.p2align 4,,10
	.p2align 3
.L1219:
	addq	$8, %rax
	cmpq	8(%rsp), %rax
	jne	.L1226
	movl	28(%rsp), %r15d
	subq	$8, %rbx
	subl	$1, %r15d
	cmpl	$-1, %r15d
	jne	.L1214
.L1204:
	addq	$40, %rsp
	.cfi_remember_state
	.cfi_def_cfa_offset 56
	popq	%rbx
	.cfi_def_cfa_offset 48
	popq	%rbp
	.cfi_def_cfa_offset 40
	popq	%r12
	.cfi_def_cfa_offset 32
	popq	%r13
	.cfi_def_cfa_offset 24
	popq	%r14
	.cfi_def_cfa_offset 16
	popq	%r15
	.cfi_def_cfa_offset 8
	ret
	.p2align 4,,10
	.p2align 3
.L1243:
	.cfi_restore_state
	movq	(%rsp), %rdx
	movslq	(%rdx), %rdx
	testl	%edx, %edx
	js	.L1229
	movq	16(%rsp), %r11
	leal	-2(%rsi,%rsi), %r13d
	leal	-2(%rcx,%rcx), %r12d
	movslq	%r13d, %r13
	movslq	%r12d, %r12
	movq	(%r9,%r11), %r11
	movq	(%r11), %r11
	movq	16(%r11), %r15
	movq	(%r15,%r13,8), %r11
	movq	8(%r15,%r13,8), %r13
	movq	(%r11,%r12,8), %r11
	movq	0(%r13,%r12,8), %r12
	movq	(%rdi,%r10,8), %r13
	movq	(%rsp), %r10
	.p2align 4,,10
	.p2align 3
.L1230:
	addq	$1, %rdx
	addq	$4, %r10
	movsd	(%r11,%rdx,8), %xmm0
	addsd	(%r12,%rdx,8), %xmm0
	mulsd	%xmm1, %xmm0
	movsd	%xmm0, 0(%r13,%rdx,8)
	movslq	(%r10), %rdx
	testl	%edx, %edx
	jns	.L1230
	jmp	.L1229
	.p2align 4,,10
	.p2align 3
.L1244:
	movq	(%rsp), %r15
	movslq	(%r15), %rdx
	testl	%edx, %edx
	js	.L1219
	movq	16(%rsp), %r11
	leal	-2(%rsi,%rsi), %esi
	leal	-2(%rcx,%rcx), %ecx
	movslq	%esi, %rsi
	movslq	%ecx, %rcx
	movq	(%r9,%r11), %r8
	addq	$2, %rcx
	movq	(%r8), %r8
	movq	16(%r8), %r9
	movq	(%r9,%rsi,8), %r8
	movq	8(%r9,%rsi,8), %rsi
	movq	(%r8,%rcx,8), %r8
	movq	(%rsi,%rcx,8), %rsi
	movq	%r15, %rcx
	.p2align 4,,10
	.p2align 3
.L1231:
	addq	$1, %rdx
	addq	$4, %rcx
	movsd	(%r8,%rdx,8), %xmm0
	addsd	(%rsi,%rdx,8), %xmm0
	mulsd	%xmm2, %xmm0
	movsd	%xmm0, (%rdi,%rdx,8)
	movslq	(%rcx), %rdx
	testl	%edx, %edx
	jns	.L1231
	jmp	.L1219
	.p2align 4,,10
	.p2align 3
.L1241:
	movslq	(%r14), %rdx
	testl	%edx, %edx
	js	.L1223
	movq	16(%rsp), %r15
	movq	(%rdi,%r10,8), %r10
	movq	(%r11,%r15), %r12
	movq	(%r12), %r13
	leal	-2(%rsi,%rsi), %r12d
	movslq	%r12d, %r12
	movq	16(%r13), %r13
	movq	0(%r13,%r12,8), %r13
	leal	-2(%rcx,%rcx), %r12d
	movslq	%r12d, %r12
	movq	0(%r13,%r12,8), %r15
	movq	8(%r13,%r12,8), %r13
	movq	(%r10,%r8,8), %r12
	movq	%r14, %r10
	.p2align 4,,10
	.p2align 3
.L1224:
	addq	$1, %rdx
	addq	$4, %r10
	movsd	(%r15,%rdx,8), %xmm0
	addsd	0(%r13,%rdx,8), %xmm0
	mulsd	%xmm1, %xmm0
	movsd	%xmm0, (%r12,%rdx,8)
	movslq	(%r10), %rdx
	testl	%edx, %edx
	jns	.L1224
	jmp	.L1223
	.p2align 4,,10
	.p2align 3
.L1242:
	movslq	(%r14), %rdx
	testl	%edx, %edx
	js	.L1222
	movq	16(%rsp), %r15
	movq	(%r11,%r15), %r8
	movq	(%r8), %r9
	leal	-2(%rsi,%rsi), %r8d
	movslq	%r8d, %r8
	movq	16(%r9), %r9
	movq	16(%r9,%r8,8), %r9
	leal	-2(%rcx,%rcx), %r8d
	movslq	%r8d, %r8
	movq	(%r9,%r8,8), %r10
	movq	8(%r9,%r8,8), %r9
	movq	%r14, %r8
	.p2align 4,,10
	.p2align 3
.L1225:
	addq	$1, %rdx
	addq	$4, %r8
	movsd	(%r10,%rdx,8), %xmm0
	addsd	(%r9,%rdx,8), %xmm0
	mulsd	%xmm1, %xmm0
	movsd	%xmm0, (%rdi,%rdx,8)
	movslq	(%r8), %rdx
	testl	%edx, %edx
	jns	.L1225
	jmp	.L1222
	.p2align 4,,10
	.p2align 3
.L1240:
	call	update_cache_f
	movq	.LC5(%rip), %rax
	movq	grid(%rip), %rbp
	movq	%rax, %xmm1
	jmp	.L1215
	.cfi_endproc
.LFE211:
	.size	halo_face, .-halo_face
	.p2align 4
	.type	relax, @function
relax:
.LFB282:
	.cfi_startproc
	pushq	%r15
	.cfi_def_cfa_offset 16
	.cfi_offset 15, -16
	movq	%rsi, %r8
	pushq	%r14
	.cfi_def_cfa_offset 24
	.cfi_offset 14, -24
	pushq	%r13
	.cfi_def_cfa_offset 32
	.cfi_offset 13, -32
	pushq	%r12
	.cfi_def_cfa_offset 40
	.cfi_offset 12, -40
	pushq	%rbp
	.cfi_def_cfa_offset 48
	.cfi_offset 6, -48
	pushq	%rbx
	.cfi_def_cfa_offset 56
	.cfi_offset 3, -56
	movl	%edx, %ebx
	subq	$56, %rsp
	.cfi_def_cfa_offset 112
	movslq	16(%rcx), %rdx
	movslq	(%rdi), %rsi
	movslq	(%r8), %r8
	movslq	8(%rcx), %rax
	movslq	12(%rcx), %rdi
	cmpl	$65535, %edx
	jle	.L1300
	movq	_constant(%rip), %rcx
	movsd	-524288(%rcx,%rdx,8), %xmm4
	cmpl	$65535, %eax
	jg	.L1257
	testl	%ebx, %ebx
	js	.L1245
	addl	$1, %eax
	movl	%ebx, 32(%rsp)
	leaq	8(,%r8,8), %rcx
	xorpd	.LC1(%rip), %xmm4
	cltq
	movq	%rcx, 16(%rsp)
	movl	%ebx, %r12d
	leaq	8(,%rsi,8), %rbp
	leaq	0(,%rax,8), %r15
	movslq	%ebx, %rax
	leaq	8(,%rdi,8), %r13
	leaq	0(,%rax,8), %r14
	movq	grid(%rip), %rax
	movq	%rax, 8(%rsp)
	jmp	.L1259
	.p2align 4,,10
	.p2align 3
.L1261:
	subl	$1, %r12d
	subq	$8, %r14
	cmpl	$-1, %r12d
	je	.L1245
.L1259:
	movq	8(%rsp), %rax
	cmpl	%r12d, 16(%rax)
	jl	.L1261
	movq	8(%rsp), %rax
	cmpb	$0, 128(%rax)
	jne	.L1301
.L1260:
	movq	8(%rsp), %rdi
	movq	96(%rdi), %rax
	leaq	(%rax,%r14,2), %rdx
	movq	(%rdx), %rax
	movl	8(%rdx), %edx
	testl	%edx, %edx
	jle	.L1261
	movl	$1, %ebx
	movl	%r12d, %ecx
	pxor	%xmm0, %xmm0
	subl	$1, %edx
	sall	%cl, %ebx
	movsd	.LC10(%rip), %xmm5
	movq	%r14, 24(%rsp)
	cvtsi2sdl	%ebx, %xmm0
	leaq	8(%rax,%rdx,8), %rbx
	movq	24(%rdi), %rdx
	addq	%r14, %rdx
	movl	32(%rsp), %r14d
	movq	(%rdx), %r11
	divsd	%xmm0, %xmm5
	.p2align 4,,10
	.p2align 3
.L1264:
	movslq	(%rax), %rcx
	movslq	4(%rax), %rdx
	cmpl	%r12d, %r14d
	je	.L1262
	movq	(%r11), %rsi
	movq	16(%rsi), %rsi
	movq	(%rsi,%rcx,8), %rsi
	movq	(%rsi,%rdx,8), %rsi
	testb	$2, (%rsi)
	je	.L1263
.L1262:
	movq	(%r11), %rsi
	movsd	L0(%rip), %xmm0
	leaq	0(,%rcx,8), %r10
	leaq	0(,%rdx,8), %r8
	movq	16(%rsp), %r9
	movq	16(%rsi), %rdi
	mulsd	%xmm5, %xmm0
	movq	(%rdi,%rcx,8), %rsi
	movq	(%rsi,%rdx,8), %rcx
	mulsd	%xmm0, %xmm0
	movsd	(%rcx,%r9), %xmm6
	movq	8(%rdi,%r10), %r9
	movq	-8(%rdi,%r10), %rdi
	movsd	(%rcx,%r15), %xmm2
	movq	(%r9,%rdx,8), %r9
	movq	(%rdi,%rdx,8), %rdx
	movsd	(%r9,%r15), %xmm1
	movsd	(%r9,%rbp), %xmm7
	mulsd	%xmm0, %xmm6
	movsd	(%rdx,%rbp), %xmm3
	mulsd	%xmm4, %xmm0
	movq	8(%rsi,%r8), %rdx
	mulsd	%xmm1, %xmm7
	addsd	%xmm2, %xmm1
	movq	-8(%rsi,%r8), %rsi
	mulsd	%xmm2, %xmm3
	movapd	%xmm1, %xmm2
	movsd	(%rdx,%r13), %xmm1
	addsd	%xmm0, %xmm2
	movsd	(%rsi,%rbp), %xmm0
	addsd	%xmm7, %xmm3
	movsd	(%rdx,%rbp), %xmm7
	mulsd	%xmm1, %xmm7
	subsd	%xmm6, %xmm3
	movsd	(%rcx,%r13), %xmm6
	mulsd	%xmm6, %xmm0
	addsd	%xmm6, %xmm1
	addsd	%xmm2, %xmm1
	addsd	%xmm7, %xmm0
	addsd	%xmm3, %xmm0
	divsd	%xmm1, %xmm0
	movsd	%xmm0, (%rcx,%rbp)
.L1263:
	addq	$8, %rax
	cmpq	%rax, %rbx
	jne	.L1264
	movq	24(%rsp), %r14
	subl	$1, %r12d
	subq	$8, %r14
	cmpl	$-1, %r12d
	jne	.L1259
.L1245:
	addq	$56, %rsp
	.cfi_remember_state
	.cfi_def_cfa_offset 56
	popq	%rbx
	.cfi_def_cfa_offset 48
	popq	%rbp
	.cfi_def_cfa_offset 40
	popq	%r12
	.cfi_def_cfa_offset 32
	popq	%r13
	.cfi_def_cfa_offset 24
	popq	%r14
	.cfi_def_cfa_offset 16
	popq	%r15
	.cfi_def_cfa_offset 8
	ret
	.p2align 4,,10
	.p2align 3
.L1257:
	.cfi_restore_state
	movsd	-524288(%rcx,%rax,8), %xmm2
	movsd	-524288(%rcx,%rdi,8), %xmm3
	testl	%ebx, %ebx
	js	.L1245
	movq	grid(%rip), %rax
	movslq	%ebx, %r13
	leaq	8(,%r8,8), %r14
	xorpd	.LC1(%rip), %xmm4
	movq	%r14, 16(%rsp)
	leaq	8(,%rsi,8), %rbp
	salq	$3, %r13
	movl	%ebx, %r12d
	movq	%rax, %r14
	jmp	.L1273
	.p2align 4,,10
	.p2align 3
.L1275:
	subl	$1, %r12d
	subq	$8, %r13
	cmpl	$-1, %r12d
	je	.L1245
.L1273:
	cmpl	%r12d, 16(%r14)
	jl	.L1275
	cmpb	$0, 128(%r14)
	jne	.L1302
.L1274:
	movq	96(%r14), %rax
	leaq	(%rax,%r13,2), %rdx
	movq	(%rdx), %rax
	movl	8(%rdx), %edx
	testl	%edx, %edx
	jle	.L1275
	movl	$1, %edi
	movl	%r12d, %ecx
	pxor	%xmm0, %xmm0
	subl	$1, %edx
	sall	%cl, %edi
	leaq	8(%rax,%rdx,8), %r15
	movq	24(%r14), %rdx
	movsd	.LC10(%rip), %xmm5
	cvtsi2sdl	%edi, %xmm0
	movq	%r13, 8(%rsp)
	addq	%r13, %rdx
	movq	16(%rsp), %r13
	movq	(%rdx), %r10
	divsd	%xmm0, %xmm5
	.p2align 4,,10
	.p2align 3
.L1278:
	movslq	(%rax), %rcx
	movslq	4(%rax), %rdx
	cmpl	%r12d, %ebx
	je	.L1276
	movq	(%r10), %rsi
	movq	16(%rsi), %rsi
	movq	(%rsi,%rcx,8), %rsi
	movq	(%rsi,%rdx,8), %rsi
	testb	$2, (%rsi)
	je	.L1277
.L1276:
	movq	(%r10), %rsi
	movsd	L0(%rip), %xmm0
	leaq	0(,%rcx,8), %r9
	leaq	0(,%rdx,8), %r8
	movq	16(%rsi), %rsi
	mulsd	%xmm5, %xmm0
	movq	(%rsi,%rcx,8), %rcx
	movq	8(%rsi,%r9), %r11
	movq	-8(%rsi,%r9), %rsi
	movq	(%rcx,%rdx,8), %rdi
	movq	(%r11,%rdx,8), %r11
	movq	(%rsi,%rdx,8), %rdx
	mulsd	%xmm0, %xmm0
	movsd	(%r11,%rbp), %xmm1
	movsd	(%rdi,%r13), %xmm6
	movsd	(%rdx,%rbp), %xmm7
	movq	8(%rcx,%r8), %rdx
	mulsd	%xmm2, %xmm1
	mulsd	%xmm2, %xmm7
	mulsd	%xmm0, %xmm6
	mulsd	%xmm4, %xmm0
	addsd	%xmm7, %xmm1
	subsd	%xmm6, %xmm1
	movapd	%xmm2, %xmm6
	addsd	%xmm2, %xmm6
	addsd	%xmm0, %xmm6
	movsd	(%rdx,%rbp), %xmm0
	movq	-8(%rcx,%r8), %rdx
	movsd	(%rdx,%rbp), %xmm7
	mulsd	%xmm3, %xmm0
	mulsd	%xmm3, %xmm7
	addsd	%xmm7, %xmm0
	addsd	%xmm1, %xmm0
	movapd	%xmm3, %xmm1
	addsd	%xmm3, %xmm1
	addsd	%xmm6, %xmm1
	divsd	%xmm1, %xmm0
	movsd	%xmm0, (%rdi,%rbp)
.L1277:
	addq	$8, %rax
	cmpq	%rax, %r15
	jne	.L1278
	movq	8(%rsp), %r13
	jmp	.L1275
	.p2align 4,,10
	.p2align 3
.L1300:
	cmpl	$65535, %eax
	jle	.L1303
	movq	_constant(%rip), %rcx
	movsd	-524288(%rcx,%rax,8), %xmm2
	movsd	-524288(%rcx,%rdi,8), %xmm3
	testl	%ebx, %ebx
	js	.L1245
	leal	1(%rdx), %eax
	movslq	%ebx, %r13
	movq	grid(%rip), %r14
	movl	%ebx, %r12d
	cltq
	leaq	8(,%r8,8), %r15
	leaq	8(,%rsi,8), %rbp
	salq	$3, %r13
	salq	$3, %rax
	movq	%r15, 32(%rsp)
	movq	%rax, 24(%rsp)
	jmp	.L1266
	.p2align 4,,10
	.p2align 3
.L1268:
	subl	$1, %r12d
	subq	$8, %r13
	cmpl	$-1, %r12d
	je	.L1245
.L1266:
	cmpl	%r12d, 16(%r14)
	jl	.L1268
	cmpb	$0, 128(%r14)
	jne	.L1304
.L1267:
	movq	96(%r14), %rax
	leaq	(%rax,%r13,2), %rdx
	movl	8(%rdx), %esi
	movq	(%rdx), %rax
	testl	%esi, %esi
	jle	.L1268
	movl	$1, %edx
	movl	%r12d, %ecx
	pxor	%xmm0, %xmm0
	movsd	.LC10(%rip), %xmm5
	sall	%cl, %edx
	movq	%r13, 8(%rsp)
	cvtsi2sdl	%edx, %xmm0
	leal	-1(%rsi), %edx
	movq	%r14, 16(%rsp)
	leaq	8(%rax,%rdx,8), %r15
	movq	24(%r14), %rdx
	movq	24(%rsp), %r14
	addq	%r13, %rdx
	movq	32(%rsp), %r13
	divsd	%xmm0, %xmm5
	movq	(%rdx), %r10
	.p2align 4,,10
	.p2align 3
.L1271:
	movslq	(%rax), %rcx
	movslq	4(%rax), %rdx
	cmpl	%r12d, %ebx
	je	.L1269
	movq	(%r10), %rsi
	movq	16(%rsi), %rsi
	movq	(%rsi,%rcx,8), %rsi
	movq	(%rsi,%rdx,8), %rsi
	testb	$2, (%rsi)
	je	.L1270
.L1269:
	movq	(%r10), %rsi
	movsd	L0(%rip), %xmm0
	leaq	0(,%rcx,8), %r9
	leaq	0(,%rdx,8), %r8
	movq	16(%rsi), %rdi
	mulsd	%xmm5, %xmm0
	movq	(%rdi,%rcx,8), %rsi
	movq	8(%rdi,%r9), %r11
	movq	-8(%rdi,%r9), %rdi
	movq	(%rsi,%rdx,8), %rcx
	movq	(%r11,%rdx,8), %r11
	movq	(%rdi,%rdx,8), %rdx
	mulsd	%xmm0, %xmm0
	movsd	(%r11,%rbp), %xmm1
	movsd	(%rcx,%r13), %xmm4
	movsd	(%rdx,%rbp), %xmm6
	movq	8(%rsi,%r8), %rdx
	mulsd	%xmm2, %xmm1
	mulsd	%xmm2, %xmm6
	mulsd	%xmm0, %xmm4
	mulsd	(%rcx,%r14), %xmm0
	addsd	%xmm6, %xmm1
	subsd	%xmm4, %xmm1
	movapd	%xmm2, %xmm4
	addsd	%xmm2, %xmm4
	subsd	%xmm0, %xmm4
	movsd	(%rdx,%rbp), %xmm0
	movq	-8(%rsi,%r8), %rdx
	movsd	(%rdx,%rbp), %xmm6
	mulsd	%xmm3, %xmm0
	mulsd	%xmm3, %xmm6
	addsd	%xmm6, %xmm0
	addsd	%xmm1, %xmm0
	movapd	%xmm3, %xmm1
	addsd	%xmm3, %xmm1
	addsd	%xmm4, %xmm1
	divsd	%xmm1, %xmm0
	movsd	%xmm0, (%rcx,%rbp)
.L1270:
	addq	$8, %rax
	cmpq	%rax, %r15
	jne	.L1271
	movq	8(%rsp), %r13
	movq	16(%rsp), %r14
	jmp	.L1268
	.p2align 4,,10
	.p2align 3
.L1302:
	movsd	%xmm4, 32(%rsp)
	movsd	%xmm3, 24(%rsp)
	movsd	%xmm2, 8(%rsp)
	call	update_cache_f
	movq	grid(%rip), %r14
	movsd	32(%rsp), %xmm4
	movsd	24(%rsp), %xmm3
	movsd	8(%rsp), %xmm2
	jmp	.L1274
	.p2align 4,,10
	.p2align 3
.L1303:
	testl	%ebx, %ebx
	js	.L1245
	leal	1(%rax), %r13d
	addl	$1, %edx
	movslq	%ebx, %rax
	movl	%ebx, 44(%rsp)
	leaq	8(,%r8,8), %rcx
	movslq	%edx, %rdx
	movslq	%r13d, %r13
	movl	%ebx, %r12d
	leaq	0(,%rax,8), %r15
	movq	grid(%rip), %rax
	movq	%rcx, 16(%rsp)
	leaq	0(,%rdx,8), %rcx
	movq	%rcx, 24(%rsp)
	salq	$3, %r13
	leaq	8(,%rsi,8), %rbp
	leaq	8(,%rdi,8), %r14
	movq	%rax, 8(%rsp)
	jmp	.L1250
	.p2align 4,,10
	.p2align 3
.L1253:
	subl	$1, %r12d
	subq	$8, %r15
	cmpl	$-1, %r12d
	je	.L1245
.L1250:
	movq	8(%rsp), %rax
	cmpl	%r12d, 16(%rax)
	jl	.L1253
	movq	8(%rsp), %rax
	cmpb	$0, 128(%rax)
	jne	.L1305
.L1252:
	movq	8(%rsp), %rdi
	movq	96(%rdi), %rax
	leaq	(%rax,%r15,2), %rdx
	movl	8(%rdx), %esi
	movq	(%rdx), %rax
	testl	%esi, %esi
	jle	.L1253
	movl	$1, %edx
	movl	%r12d, %ecx
	pxor	%xmm0, %xmm0
	movsd	.LC10(%rip), %xmm4
	sall	%cl, %edx
	movq	%r15, 32(%rsp)
	cvtsi2sdl	%edx, %xmm0
	leal	-1(%rsi), %edx
	leaq	8(%rax,%rdx,8), %rbx
	movq	24(%rdi), %rdx
	addq	%r15, %rdx
	movl	44(%rsp), %r15d
	divsd	%xmm0, %xmm4
	movq	(%rdx), %r11
	.p2align 4,,10
	.p2align 3
.L1256:
	movslq	(%rax), %rcx
	movslq	4(%rax), %rdx
	cmpl	%r12d, %r15d
	je	.L1254
	movq	(%r11), %rsi
	movq	16(%rsi), %rsi
	movq	(%rsi,%rcx,8), %rsi
	movq	(%rsi,%rdx,8), %rsi
	testb	$2, (%rsi)
	je	.L1255
.L1254:
	movq	(%r11), %rsi
	movsd	L0(%rip), %xmm0
	leaq	0(,%rcx,8), %r10
	leaq	0(,%rdx,8), %r8
	movq	16(%rsp), %r9
	mulsd	%xmm4, %xmm0
	movq	16(%rsi), %rdi
	movq	(%rdi,%rcx,8), %rsi
	movq	(%rsi,%rdx,8), %rcx
	mulsd	%xmm0, %xmm0
	movsd	(%rcx,%r9), %xmm5
	movq	24(%rsp), %r9
	movsd	(%rcx,%r13), %xmm2
	mulsd	%xmm0, %xmm5
	mulsd	(%rcx,%r9), %xmm0
	movq	8(%rdi,%r10), %r9
	movq	-8(%rdi,%r10), %rdi
	movq	(%r9,%rdx,8), %r9
	movq	(%rdi,%rdx,8), %rdx
	movsd	(%r9,%r13), %xmm1
	movsd	(%r9,%rbp), %xmm6
	movsd	(%rdx,%rbp), %xmm3
	movq	8(%rsi,%r8), %rdx
	mulsd	%xmm1, %xmm6
	movq	-8(%rsi,%r8), %rsi
	mulsd	%xmm2, %xmm3
	addsd	%xmm1, %xmm2
	movsd	(%rdx,%r14), %xmm1
	subsd	%xmm0, %xmm2
	movsd	(%rsi,%rbp), %xmm0
	addsd	%xmm6, %xmm3
	movsd	(%rdx,%rbp), %xmm6
	mulsd	%xmm1, %xmm6
	subsd	%xmm5, %xmm3
	movsd	(%rcx,%r14), %xmm5
	mulsd	%xmm5, %xmm0
	addsd	%xmm5, %xmm1
	addsd	%xmm2, %xmm1
	addsd	%xmm6, %xmm0
	addsd	%xmm3, %xmm0
	divsd	%xmm1, %xmm0
	movsd	%xmm0, (%rcx,%rbp)
.L1255:
	addq	$8, %rax
	cmpq	%rbx, %rax
	jne	.L1256
	movq	32(%rsp), %r15
	jmp	.L1253
	.p2align 4,,10
	.p2align 3
.L1305:
	call	update_cache_f
	movq	grid(%rip), %rax
	movq	%rax, 8(%rsp)
	jmp	.L1252
	.p2align 4,,10
	.p2align 3
.L1301:
	movsd	%xmm4, 24(%rsp)
	call	update_cache_f
	movq	grid(%rip), %rax
	movsd	24(%rsp), %xmm4
	movq	%rax, 8(%rsp)
	jmp	.L1260
	.p2align 4,,10
	.p2align 3
.L1304:
	movsd	%xmm3, 16(%rsp)
	movsd	%xmm2, 8(%rsp)
	call	update_cache_f
	movq	grid(%rip), %r14
	movsd	16(%rsp), %xmm3
	movsd	8(%rsp), %xmm2
	jmp	.L1267
	.cfi_endproc
.LFE282:
	.size	relax, .-relax
	.p2align 4
	.type	relax_viscosity, @function
relax_viscosity:
.LFB286:
	.cfi_startproc
	pushq	%r15
	.cfi_def_cfa_offset 16
	.cfi_offset 15, -16
	pushq	%r14
	.cfi_def_cfa_offset 24
	.cfi_offset 14, -24
	pushq	%r13
	.cfi_def_cfa_offset 32
	.cfi_offset 13, -32
	pushq	%r12
	.cfi_def_cfa_offset 40
	.cfi_offset 12, -40
	pushq	%rbp
	.cfi_def_cfa_offset 48
	.cfi_offset 6, -48
	pushq	%rbx
	.cfi_def_cfa_offset 56
	.cfi_offset 3, -56
	movl	%edx, %ebx
	subq	$168, %rsp
	.cfi_def_cfa_offset 224
	movslq	16(%rcx), %r10
	movslq	8(%rcx), %r8
	movslq	12(%rcx), %r9
	movsd	24(%rcx), %xmm4
	movl	%edx, 12(%rsp)
	movslq	(%rdi), %r11
	movslq	4(%rdi), %rcx
	movslq	(%rsi), %rdx
	movslq	4(%rsi), %rax
	cmpl	$65535, %r10d
	jle	.L1361
	movq	_constant(%rip), %rsi
	movsd	-524288(%rsi,%r10,8), %xmm5
	cmpl	$65535, %r8d
	jg	.L1318
	movl	12(%rsp), %edi
	testl	%edi, %edi
	js	.L1306
	leaq	8(,%rax,8), %rax
	addl	$1, %r8d
	leaq	8(,%rcx,8), %rbp
	movsd	.LC3(%rip), %xmm3
	movq	%rax, 128(%rsp)
	movslq	%edi, %rax
	movslq	%r8d, %r8
	leaq	8(,%r11,8), %r12
	salq	$3, %rax
	leaq	0(,%r8,8), %rbx
	movq	%r12, %r15
	movq	%rax, 136(%rsp)
	movq	grid(%rip), %rax
	movq	%rbx, 112(%rsp)
	leaq	8(,%r9,8), %rbx
	movq	%rbx, 48(%rsp)
	leaq	8(,%rdx,8), %rbx
	movq	%rax, 16(%rsp)
	movq	%rbp, %rax
	movl	%edi, %ebp
	movq	%rbx, 120(%rsp)
	movq	%rax, %rbx
	jmp	.L1320
	.p2align 4,,10
	.p2align 3
.L1322:
	subq	$8, 136(%rsp)
	subl	$1, %ebp
	cmpl	$-1, %ebp
	je	.L1306
.L1320:
	movq	16(%rsp), %rax
	cmpl	%ebp, 16(%rax)
	jl	.L1322
	movq	16(%rsp), %rax
	cmpb	$0, 128(%rax)
	jne	.L1362
.L1321:
	movq	16(%rsp), %rsi
	movq	136(%rsp), %rdi
	movq	96(%rsi), %rax
	leaq	(%rax,%rdi,2), %rax
	movq	(%rax), %rdx
	movl	8(%rax), %eax
	testl	%eax, %eax
	jle	.L1322
	movl	$1, %r11d
	movl	%ebp, %ecx
	pxor	%xmm0, %xmm0
	subl	$1, %eax
	sall	%cl, %r11d
	movsd	.LC10(%rip), %xmm6
	leaq	8(%rdx,%rax,8), %rax
	movl	%ebp, 96(%rsp)
	cvtsi2sdl	%r11d, %xmm0
	movq	%rax, 104(%rsp)
	movq	24(%rsi), %rax
	movq	%rdx, %r11
	addq	%rdi, %rax
	movq	(%rax), %rsi
	divsd	%xmm0, %xmm6
	movq	%rsi, 40(%rsp)
	.p2align 4,,10
	.p2align 3
.L1325:
	movslq	(%r11), %rax
	movslq	4(%r11), %r9
	movl	96(%rsp), %esi
	cmpl	%esi, 12(%rsp)
	je	.L1323
	movq	40(%rsp), %rdx
	movq	(%rdx), %rdx
	movq	16(%rdx), %rdx
	movq	(%rdx,%rax,8), %rdx
	movq	(%rdx,%r9,8), %rdx
	testb	$2, (%rdx)
	je	.L1324
.L1323:
	movq	40(%rsp), %rsi
	addq	$1, %rax
	movq	48(%rsp), %r13
	leaq	0(,%rax,8), %r12
	movq	112(%rsp), %r10
	movsd	L0(%rip), %xmm7
	movq	(%rsi), %rdx
	mulsd	%xmm6, %xmm7
	movq	16(%rdx), %rsi
	leaq	0(,%r9,8), %rdx
	movq	(%rsi,%rax,8), %r8
	movq	-8(%rsi,%r12), %rdi
	movq	-16(%rsi,%r12), %rsi
	movq	8(%r8,%rdx), %r14
	movq	(%rdi,%r9,8), %rax
	mulsd	%xmm7, %xmm7
	movq	(%rsi,%r9,8), %r12
	movq	(%r8,%r9,8), %rcx
	movq	8(%rdi,%rdx), %r9
	movq	-8(%rdi,%rdx), %rdi
	movq	%r14, 24(%rsp)
	movq	%r12, 56(%rsp)
	leaq	(%r12,%rbx), %r14
	movq	8(%rsi,%rdx), %r12
	leaq	(%rcx,%r10), %rbp
	addq	%r9, %r13
	movq	%r9, 64(%rsp)
	addq	%r15, %r9
	addq	%rax, %r10
	movsd	0(%r13), %xmm9
	movq	-8(%r8,%rdx), %r8
	movq	%r12, 32(%rsp)
	movq	48(%rsp), %r12
	movq	-8(%rsi,%rdx), %rdx
	movq	%r9, 72(%rsp)
	leaq	(%rcx,%rbx), %r9
	movsd	(%r9), %xmm1
	movsd	(%r14), %xmm8
	movq	%rdi, 88(%rsp)
	addq	%r15, %rdi
	addq	%rax, %r12
	movsd	0(%rbp), %xmm0
	movsd	(%r10), %xmm10
	movq	%r14, 80(%rsp)
	movsd	(%r12), %xmm2
	movq	24(%rsp), %r14
	movq	32(%rsp), %rsi
	addsd	%xmm10, %xmm10
	addsd	%xmm0, %xmm0
	movsd	(%r14,%rbx), %xmm11
	movq	72(%rsp), %r14
	movsd	(%rsi,%rbx), %xmm12
	movq	56(%rsp), %rsi
	addsd	%xmm1, %xmm11
	addsd	(%r8,%rbx), %xmm1
	addsd	%xmm8, %xmm12
	addsd	(%rdx,%rbx), %xmm8
	movsd	(%rsi,%r15), %xmm13
	movq	32(%rsp), %rsi
	mulsd	%xmm3, %xmm1
	mulsd	%xmm3, %xmm8
	subsd	(%rdi), %xmm1
	mulsd	%xmm3, %xmm12
	mulsd	%xmm3, %xmm11
	addsd	(%r14), %xmm11
	mulsd	%xmm10, %xmm13
	subsd	%xmm8, %xmm1
	movapd	%xmm4, %xmm8
	divsd	%xmm5, %xmm8
	subsd	%xmm12, %xmm11
	movsd	(%rcx,%r15), %xmm12
	movq	120(%rsp), %rcx
	mulsd	%xmm0, %xmm12
	addsd	%xmm10, %xmm0
	mulsd	%xmm9, %xmm11
	mulsd	%xmm2, %xmm1
	addsd	%xmm9, %xmm0
	addsd	%xmm13, %xmm12
	addsd	%xmm2, %xmm0
	addsd	%xmm12, %xmm11
	subsd	%xmm1, %xmm11
	movapd	%xmm11, %xmm1
	movsd	(%rax,%rcx), %xmm11
	mulsd	%xmm7, %xmm11
	mulsd	%xmm8, %xmm1
	mulsd	%xmm8, %xmm0
	addsd	%xmm11, %xmm1
	addsd	%xmm7, %xmm0
	divsd	%xmm0, %xmm1
	movsd	%xmm1, (%rax,%r15)
	movsd	(%r14), %xmm2
	movq	24(%rsp), %r14
	movsd	(%rdi), %xmm12
	movsd	(%r8,%r15), %xmm13
	movsd	(%r14,%r15), %xmm0
	movq	88(%rsp), %rdi
	addsd	%xmm12, %xmm13
	movq	80(%rsp), %r14
	movsd	(%r10), %xmm9
	addsd	%xmm2, %xmm0
	addsd	(%rsi,%r15), %xmm2
	movsd	0(%rbp), %xmm10
	movsd	(%rdi,%rbx), %xmm14
	movsd	0(%r13), %xmm1
	mulsd	%xmm3, %xmm13
	movsd	(%r12), %xmm11
	mulsd	%xmm3, %xmm0
	addsd	%xmm1, %xmm1
	addsd	(%r9), %xmm0
	movq	64(%rsp), %r9
	mulsd	%xmm3, %xmm2
	addsd	%xmm11, %xmm11
	subsd	%xmm13, %xmm0
	movsd	(%r9,%rbx), %xmm13
	subsd	(%r14), %xmm2
	mulsd	%xmm11, %xmm14
	addsd	(%rdx,%r15), %xmm12
	movq	128(%rsp), %rdi
	mulsd	%xmm1, %xmm13
	addsd	%xmm11, %xmm1
	mulsd	%xmm10, %xmm0
	mulsd	%xmm3, %xmm12
	addsd	%xmm10, %xmm1
	addsd	%xmm14, %xmm13
	addsd	%xmm9, %xmm1
	subsd	%xmm12, %xmm2
	addsd	%xmm13, %xmm0
	mulsd	%xmm8, %xmm1
	mulsd	%xmm9, %xmm2
	addsd	%xmm7, %xmm1
	subsd	%xmm2, %xmm0
	movsd	(%rax,%rdi), %xmm2
	mulsd	%xmm7, %xmm2
	mulsd	%xmm8, %xmm0
	addsd	%xmm2, %xmm0
	divsd	%xmm1, %xmm0
	movsd	%xmm0, (%rax,%rbx)
.L1324:
	addq	$8, %r11
	cmpq	%r11, 104(%rsp)
	jne	.L1325
	movl	96(%rsp), %ebp
	jmp	.L1322
	.p2align 4,,10
	.p2align 3
.L1318:
	movsd	-524288(%rsi,%r8,8), %xmm2
	movl	12(%rsp), %edi
	movsd	-524288(%rsi,%r9,8), %xmm3
	testl	%edi, %edi
	js	.L1306
	leaq	8(,%rax,8), %rax
	leaq	8(,%rdx,8), %rbx
	movsd	.LC3(%rip), %xmm1
	movl	%edi, %r13d
	movq	%rax, 80(%rsp)
	movslq	%edi, %rax
	leaq	8(,%r11,8), %r12
	leaq	8(,%rcx,8), %rbp
	salq	$3, %rax
	movq	%rbx, 72(%rsp)
	movq	%rax, 88(%rsp)
	movq	grid(%rip), %rax
	movq	%rax, 16(%rsp)
	jmp	.L1334
	.p2align 4,,10
	.p2align 3
.L1336:
	subl	$1, %r13d
	subq	$8, 88(%rsp)
	cmpl	$-1, %r13d
	je	.L1306
.L1334:
	movq	16(%rsp), %rax
	cmpl	%r13d, 16(%rax)
	jl	.L1336
	movq	16(%rsp), %rax
	cmpb	$0, 128(%rax)
	jne	.L1363
.L1335:
	movq	16(%rsp), %rsi
	movq	88(%rsp), %rdi
	movq	96(%rsi), %rax
	leaq	(%rax,%rdi,2), %rax
	movq	(%rax), %rdx
	movl	8(%rax), %eax
	testl	%eax, %eax
	jle	.L1336
	movl	$1, %ebx
	movl	%r13d, %ecx
	pxor	%xmm0, %xmm0
	subl	$1, %eax
	sall	%cl, %ebx
	leaq	8(%rdx,%rax,8), %rax
	movl	%r13d, 56(%rsp)
	movq	%rdx, %r10
	cvtsi2sdl	%ebx, %xmm0
	movsd	.LC10(%rip), %xmm6
	movq	%rax, 64(%rsp)
	movq	24(%rsi), %rax
	addq	%rdi, %rax
	divsd	%xmm0, %xmm6
	movq	(%rax), %r8
	movq	%r8, %r11
	.p2align 4,,10
	.p2align 3
.L1339:
	movslq	(%r10), %rax
	movslq	4(%r10), %rdx
	movl	56(%rsp), %edi
	cmpl	%edi, 12(%rsp)
	je	.L1337
	movq	(%r11), %rcx
	movq	16(%rcx), %rcx
	movq	(%rcx,%rax,8), %rcx
	movq	(%rcx,%rdx,8), %rcx
	testb	$2, (%rcx)
	je	.L1338
.L1337:
	movq	(%r11), %rcx
	addq	$1, %rax
	movsd	L0(%rip), %xmm7
	leaq	0(,%rax,8), %rdi
	movq	16(%rcx), %rcx
	mulsd	%xmm6, %xmm7
	movq	-16(%rcx,%rdi), %rsi
	movq	(%rcx,%rax,8), %r8
	leaq	0(,%rdx,8), %rax
	movq	-8(%rcx,%rdi), %rcx
	movq	(%rsi,%rdx,8), %r14
	movq	8(%r8,%rax), %rdi
	movq	8(%rcx,%rax), %rbx
	movq	(%r8,%rdx,8), %r15
	mulsd	%xmm7, %xmm7
	movq	(%rcx,%rdx,8), %rdx
	movq	-8(%r8,%rax), %r8
	movq	%rdi, 32(%rsp)
	leaq	(%r14,%rbp), %rdi
	leaq	(%rbx,%r12), %r13
	movq	%rbx, 24(%rsp)
	movq	8(%rsi,%rax), %rbx
	leaq	(%r15,%rbp), %r9
	movsd	(%rdi), %xmm10
	movsd	(%r9), %xmm8
	movq	%rbx, 40(%rsp)
	movq	-8(%rcx,%rax), %rbx
	movq	40(%rsp), %rcx
	movq	-8(%rsi,%rax), %rax
	movq	32(%rsp), %rsi
	movsd	(%r14,%r12), %xmm12
	movq	%rbx, 48(%rsp)
	addq	%r12, %rbx
	movsd	(%rcx,%rbp), %xmm0
	movsd	(%r15,%r12), %xmm11
	movsd	(%rsi,%rbp), %xmm9
	movq	72(%rsp), %r14
	addsd	%xmm10, %xmm0
	addsd	(%rax,%rbp), %xmm10
	addsd	%xmm8, %xmm9
	addsd	(%r8,%rbp), %xmm8
	mulsd	%xmm1, %xmm0
	mulsd	%xmm1, %xmm9
	addsd	0(%r13), %xmm9
	mulsd	%xmm1, %xmm10
	mulsd	%xmm1, %xmm8
	subsd	(%rbx), %xmm8
	subsd	%xmm0, %xmm9
	movapd	%xmm2, %xmm0
	addsd	%xmm2, %xmm0
	subsd	%xmm10, %xmm8
	movsd	(%rdx,%r14), %xmm10
	mulsd	%xmm3, %xmm9
	mulsd	%xmm0, %xmm12
	mulsd	%xmm0, %xmm11
	addsd	%xmm0, %xmm0
	mulsd	%xmm3, %xmm8
	mulsd	%xmm7, %xmm10
	addsd	%xmm3, %xmm0
	addsd	%xmm12, %xmm11
	addsd	%xmm3, %xmm0
	addsd	%xmm11, %xmm9
	subsd	%xmm8, %xmm9
	movapd	%xmm4, %xmm8
	divsd	%xmm5, %xmm8
	mulsd	%xmm8, %xmm9
	mulsd	%xmm8, %xmm0
	addsd	%xmm10, %xmm9
	addsd	%xmm7, %xmm0
	divsd	%xmm0, %xmm9
	movsd	%xmm9, (%rdx,%r12)
	movsd	(%rbx), %xmm11
	movsd	(%r8,%r12), %xmm0
	movsd	0(%r13), %xmm9
	movsd	(%rsi,%r12), %xmm10
	addsd	%xmm11, %xmm0
	movq	24(%rsp), %rbx
	addsd	(%rax,%r12), %xmm11
	addsd	%xmm9, %xmm10
	addsd	(%rcx,%r12), %xmm9
	movq	80(%rsp), %rax
	movsd	(%rbx,%rbp), %xmm12
	movq	48(%rsp), %rbx
	mulsd	%xmm1, %xmm0
	mulsd	%xmm1, %xmm10
	movsd	(%rbx,%rbp), %xmm13
	addsd	(%r9), %xmm10
	mulsd	%xmm1, %xmm11
	mulsd	%xmm1, %xmm9
	subsd	(%rdi), %xmm9
	subsd	%xmm0, %xmm10
	movapd	%xmm3, %xmm0
	addsd	%xmm3, %xmm0
	subsd	%xmm11, %xmm9
	mulsd	%xmm2, %xmm10
	mulsd	%xmm0, %xmm12
	mulsd	%xmm0, %xmm13
	addsd	%xmm0, %xmm0
	mulsd	%xmm2, %xmm9
	addsd	%xmm2, %xmm0
	addsd	%xmm13, %xmm12
	addsd	%xmm2, %xmm0
	addsd	%xmm12, %xmm10
	mulsd	%xmm8, %xmm0
	subsd	%xmm9, %xmm10
	mulsd	%xmm8, %xmm10
	addsd	%xmm7, %xmm0
	movapd	%xmm10, %xmm9
	movsd	(%rdx,%rax), %xmm10
	mulsd	%xmm7, %xmm10
	addsd	%xmm10, %xmm9
	divsd	%xmm0, %xmm9
	movsd	%xmm9, (%rdx,%rbp)
.L1338:
	addq	$8, %r10
	cmpq	%r10, 64(%rsp)
	jne	.L1339
	movl	56(%rsp), %r13d
	subq	$8, 88(%rsp)
	subl	$1, %r13d
	cmpl	$-1, %r13d
	jne	.L1334
.L1306:
	addq	$168, %rsp
	.cfi_remember_state
	.cfi_def_cfa_offset 56
	popq	%rbx
	.cfi_def_cfa_offset 48
	popq	%rbp
	.cfi_def_cfa_offset 40
	popq	%r12
	.cfi_def_cfa_offset 32
	popq	%r13
	.cfi_def_cfa_offset 24
	popq	%r14
	.cfi_def_cfa_offset 16
	popq	%r15
	.cfi_def_cfa_offset 8
	ret
	.p2align 4,,10
	.p2align 3
.L1361:
	.cfi_restore_state
	cmpl	$65535, %r8d
	jle	.L1364
	movq	_constant(%rip), %rsi
	movl	12(%rsp), %edi
	movsd	-524288(%rsi,%r8,8), %xmm3
	movsd	-524288(%rsi,%r9,8), %xmm5
	testl	%edi, %edi
	js	.L1306
	leaq	8(,%rax,8), %rax
	leal	1(%r10), %esi
	movsd	.LC3(%rip), %xmm2
	movq	%rax, 88(%rsp)
	movslq	%edi, %rax
	movslq	%esi, %rsi
	leaq	8(,%r11,8), %r13
	salq	$3, %rax
	leaq	0(,%rsi,8), %rbx
	leaq	8(,%rcx,8), %r12
	movq	%r13, %rbp
	movq	%rax, 96(%rsp)
	movq	grid(%rip), %rax
	movq	%rbx, 72(%rsp)
	leaq	8(,%rdx,8), %rbx
	movq	%rbx, 80(%rsp)
	movl	%edi, %ebx
	movq	%rax, 16(%rsp)
	jmp	.L1327
	.p2align 4,,10
	.p2align 3
.L1329:
	subl	$1, %ebx
	subq	$8, 96(%rsp)
	cmpl	$-1, %ebx
	je	.L1306
.L1327:
	movq	16(%rsp), %rax
	cmpl	%ebx, 16(%rax)
	jl	.L1329
	movq	16(%rsp), %rax
	cmpb	$0, 128(%rax)
	jne	.L1365
.L1328:
	movq	16(%rsp), %rsi
	movq	96(%rsp), %rdi
	movq	96(%rsi), %rax
	leaq	(%rax,%rdi,2), %rax
	movq	(%rax), %rdx
	movl	8(%rax), %eax
	testl	%eax, %eax
	jle	.L1329
	movl	$1, %r11d
	movl	%ebx, %ecx
	pxor	%xmm0, %xmm0
	subl	$1, %eax
	sall	%cl, %r11d
	leaq	8(%rdx,%rax,8), %rax
	movl	%ebx, 56(%rsp)
	movq	%rdx, %r13
	cvtsi2sdl	%r11d, %xmm0
	movq	%rax, 64(%rsp)
	movq	24(%rsi), %rax
	movsd	.LC10(%rip), %xmm13
	addq	%rdi, %rax
	movq	(%rax), %r9
	divsd	%xmm0, %xmm13
	movq	%r9, %r10
	.p2align 4,,10
	.p2align 3
.L1332:
	movslq	0(%r13), %rax
	movslq	4(%r13), %rsi
	movl	56(%rsp), %ebx
	cmpl	%ebx, 12(%rsp)
	je	.L1330
	movq	(%r10), %rdx
	movq	16(%rdx), %rdx
	movq	(%rdx,%rax,8), %rdx
	movq	(%rdx,%rsi,8), %rdx
	testb	$2, (%rdx)
	je	.L1331
.L1330:
	movq	(%r10), %rdx
	movq	72(%rsp), %rbx
	leaq	0(,%rax,8), %r9
	movapd	%xmm4, %xmm8
	movsd	L0(%rip), %xmm7
	movq	16(%rdx), %rcx
	mulsd	%xmm13, %xmm7
	movq	8(%rcx,%r9), %r8
	movq	(%rcx,%rax,8), %rdi
	leaq	0(,%rsi,8), %rax
	movq	-8(%rcx,%r9), %rcx
	movq	8(%r8,%rax), %r11
	movq	(%rdi,%rsi,8), %rdx
	movq	(%r8,%rsi,8), %r15
	movq	(%rcx,%rsi,8), %r14
	movq	-8(%r8,%rax), %r8
	movq	8(%rdi,%rax), %rsi
	movq	%r11, 24(%rsp)
	addq	%rdx, %rbx
	movq	8(%rcx,%rax), %r11
	movq	-8(%rdi,%rax), %rdi
	divsd	(%rbx), %xmm8
	movq	%rbx, 40(%rsp)
	movq	-8(%rcx,%rax), %rax
	leaq	(%rsi,%rbp), %rbx
	leaq	(%r15,%r12), %r9
	mulsd	%xmm7, %xmm7
	movq	24(%rsp), %rcx
	movsd	(%r9), %xmm1
	movq	%r11, 32(%rsp)
	leaq	(%rdi,%rbp), %r11
	movq	%rsi, 48(%rsp)
	leaq	(%r14,%r12), %rsi
	movsd	(%r15,%rbp), %xmm11
	movsd	(%rcx,%r12), %xmm9
	movq	32(%rsp), %rcx
	movsd	(%rsi), %xmm10
	movsd	(%r14,%rbp), %xmm12
	movsd	(%rcx,%r12), %xmm0
	addsd	%xmm1, %xmm9
	addsd	(%r8,%r12), %xmm1
	addsd	%xmm10, %xmm0
	mulsd	%xmm2, %xmm9
	addsd	(%rbx), %xmm9
	mulsd	%xmm2, %xmm1
	mulsd	%xmm2, %xmm0
	subsd	(%r11), %xmm1
	addsd	(%rax,%r12), %xmm10
	movq	80(%rsp), %r15
	movq	40(%rsp), %rcx
	mulsd	%xmm2, %xmm10
	subsd	%xmm0, %xmm9
	movapd	%xmm3, %xmm0
	addsd	%xmm3, %xmm0
	subsd	%xmm10, %xmm1
	mulsd	%xmm5, %xmm9
	mulsd	%xmm0, %xmm12
	mulsd	%xmm0, %xmm11
	addsd	%xmm0, %xmm0
	mulsd	%xmm5, %xmm1
	addsd	%xmm5, %xmm0
	addsd	%xmm12, %xmm11
	addsd	%xmm5, %xmm0
	addsd	%xmm11, %xmm9
	mulsd	%xmm8, %xmm0
	subsd	%xmm1, %xmm9
	movapd	%xmm9, %xmm1
	movsd	(%rdx,%r15), %xmm9
	addsd	%xmm7, %xmm0
	mulsd	%xmm8, %xmm1
	movapd	%xmm4, %xmm8
	mulsd	%xmm7, %xmm9
	addsd	%xmm9, %xmm1
	divsd	%xmm0, %xmm1
	movsd	%xmm1, (%rdx,%rbp)
	divsd	(%rcx), %xmm8
	movq	24(%rsp), %rcx
	movsd	(%r11), %xmm10
	movsd	(%r8,%rbp), %xmm0
	movsd	(%rbx), %xmm1
	movsd	(%rcx,%rbp), %xmm9
	movq	32(%rsp), %rcx
	addsd	%xmm10, %xmm0
	addsd	(%rax,%rbp), %xmm10
	movq	48(%rsp), %rbx
	addsd	%xmm1, %xmm9
	addsd	(%rcx,%rbp), %xmm1
	movsd	(%rdi,%r12), %xmm12
	movsd	(%rbx,%r12), %xmm11
	movq	88(%rsp), %rax
	mulsd	%xmm2, %xmm0
	mulsd	%xmm2, %xmm9
	addsd	(%r9), %xmm9
	mulsd	%xmm2, %xmm10
	mulsd	%xmm2, %xmm1
	subsd	(%rsi), %xmm1
	subsd	%xmm0, %xmm9
	movapd	%xmm5, %xmm0
	addsd	%xmm5, %xmm0
	subsd	%xmm10, %xmm1
	mulsd	%xmm3, %xmm9
	mulsd	%xmm0, %xmm11
	mulsd	%xmm0, %xmm12
	addsd	%xmm0, %xmm0
	mulsd	%xmm3, %xmm1
	addsd	%xmm3, %xmm0
	addsd	%xmm12, %xmm11
	addsd	%xmm3, %xmm0
	addsd	%xmm11, %xmm9
	mulsd	%xmm8, %xmm0
	subsd	%xmm1, %xmm9
	movapd	%xmm9, %xmm1
	movsd	(%rdx,%rax), %xmm9
	addsd	%xmm7, %xmm0
	mulsd	%xmm8, %xmm1
	mulsd	%xmm7, %xmm9
	addsd	%xmm9, %xmm1
	divsd	%xmm0, %xmm1
	movsd	%xmm1, (%rdx,%r12)
.L1331:
	addq	$8, %r13
	cmpq	%r13, 64(%rsp)
	jne	.L1332
	movl	56(%rsp), %ebx
	jmp	.L1329
	.p2align 4,,10
	.p2align 3
.L1363:
	movsd	%xmm4, 48(%rsp)
	movsd	%xmm3, 40(%rsp)
	movsd	%xmm2, 32(%rsp)
	movsd	%xmm5, 24(%rsp)
	call	update_cache_f
	movq	grid(%rip), %rax
	movsd	48(%rsp), %xmm4
	movsd	40(%rsp), %xmm3
	movsd	32(%rsp), %xmm2
	movq	%rax, 16(%rsp)
	movq	.LC3(%rip), %rax
	movsd	24(%rsp), %xmm5
	movq	%rax, %xmm1
	jmp	.L1335
	.p2align 4,,10
	.p2align 3
.L1364:
	movl	%ebx, %edi
	testl	%ebx, %ebx
	js	.L1306
	addl	$1, %r10d
	addl	$1, %r8d
	leaq	8(,%rax,8), %rax
	movsd	.LC3(%rip), %xmm2
	movslq	%r10d, %r10
	movslq	%r8d, %r8
	movq	%rax, 144(%rsp)
	movslq	%edi, %rax
	leaq	0(,%r10,8), %rbx
	salq	$3, %rax
	movl	%edi, %r14d
	movq	%rbx, 120(%rsp)
	leaq	0(,%r8,8), %rbx
	leaq	8(,%r11,8), %r12
	movq	%rbx, 128(%rsp)
	leaq	8(,%r9,8), %rbx
	leaq	8(,%rcx,8), %rbp
	movq	%r12, %r15
	movq	%rax, 152(%rsp)
	movq	grid(%rip), %rax
	movq	%rbx, 48(%rsp)
	leaq	8(,%rdx,8), %rbx
	movq	%rbx, 136(%rsp)
	movq	%rbp, %rbx
	movq	%rax, 16(%rsp)
	jmp	.L1311
	.p2align 4,,10
	.p2align 3
.L1314:
	subq	$8, 152(%rsp)
	subl	$1, %r14d
	cmpl	$-1, %r14d
	je	.L1306
.L1311:
	movq	16(%rsp), %rax
	cmpl	%r14d, 16(%rax)
	jl	.L1314
	movq	16(%rsp), %rax
	cmpb	$0, 128(%rax)
	jne	.L1366
.L1313:
	movq	16(%rsp), %rsi
	movq	152(%rsp), %rdi
	movq	96(%rsi), %rax
	leaq	(%rax,%rdi,2), %rax
	movq	(%rax), %rdx
	movl	8(%rax), %eax
	testl	%eax, %eax
	jle	.L1314
	movl	$1, %r11d
	movl	%r14d, %ecx
	pxor	%xmm0, %xmm0
	subl	$1, %eax
	sall	%cl, %r11d
	leaq	8(%rdx,%rax,8), %rax
	movl	%r14d, 104(%rsp)
	movsd	.LC10(%rip), %xmm14
	cvtsi2sdl	%r11d, %xmm0
	movq	%rax, 112(%rsp)
	movq	24(%rsi), %rax
	movq	%rdx, %r11
	addq	%rdi, %rax
	movq	(%rax), %rsi
	divsd	%xmm0, %xmm14
	movq	%rsi, 40(%rsp)
	.p2align 4,,10
	.p2align 3
.L1317:
	movslq	(%r11), %rax
	movslq	4(%r11), %r9
	movl	104(%rsp), %esi
	cmpl	%esi, 12(%rsp)
	je	.L1315
	movq	40(%rsp), %rdi
	movq	(%rdi), %rdx
	movq	16(%rdx), %rdx
	movq	(%rdx,%rax,8), %rdx
	movq	(%rdx,%r9,8), %rdx
	testb	$2, (%rdx)
	je	.L1316
.L1315:
	movq	40(%rsp), %rdi
	movq	120(%rsp), %rcx
	movapd	%xmm4, %xmm7
	leaq	0(,%rax,8), %r12
	movq	48(%rsp), %r13
	movq	128(%rsp), %r10
	movq	(%rdi), %rdx
	movq	16(%rdx), %rsi
	leaq	0(,%r9,8), %rdx
	movq	8(%rsi,%r12), %r8
	movq	(%rsi,%rax,8), %rdi
	movq	-8(%rsi,%r12), %rsi
	movq	(%rdi,%r9,8), %rax
	movq	8(%r8,%rdx), %r14
	movq	(%rsi,%r9,8), %r12
	addq	%rax, %rcx
	movq	%r14, 24(%rsp)
	movq	%r12, 64(%rsp)
	leaq	(%r12,%rbx), %r14
	movq	8(%rsi,%rdx), %r12
	divsd	(%rcx), %xmm7
	movq	%rcx, 56(%rsp)
	movq	(%r8,%r9,8), %rcx
	movq	8(%rdi,%rdx), %r9
	movq	-8(%rdi,%rdx), %rdi
	movq	%r12, 32(%rsp)
	movq	48(%rsp), %r12
	leaq	(%rcx,%r10), %rbp
	addq	%rax, %r10
	movsd	(%r14), %xmm11
	addq	%r9, %r13
	movq	%r9, 72(%rsp)
	addq	%r15, %r9
	movq	-8(%r8,%rdx), %r8
	movq	%r9, 80(%rsp)
	addq	%rax, %r12
	leaq	(%rcx,%rbx), %r9
	movsd	0(%r13), %xmm8
	movsd	(%r9), %xmm6
	movsd	(%r12), %xmm0
	movq	%r14, 88(%rsp)
	movsd	0(%rbp), %xmm1
	movsd	(%r10), %xmm9
	movq	%rdi, 96(%rsp)
	addq	%r15, %rdi
	movq	-8(%rsi,%rdx), %rdx
	movq	32(%rsp), %rsi
	movq	24(%rsp), %r14
	addsd	%xmm9, %xmm9
	addsd	%xmm1, %xmm1
	movsd	L0(%rip), %xmm5
	movsd	(%rsi,%rbx), %xmm12
	movq	64(%rsp), %rsi
	movsd	(%r14,%rbx), %xmm10
	movq	80(%rsp), %r14
	mulsd	%xmm14, %xmm5
	addsd	%xmm11, %xmm12
	addsd	(%rdx,%rbx), %xmm11
	movsd	(%rsi,%r15), %xmm13
	addsd	%xmm6, %xmm10
	addsd	(%r8,%rbx), %xmm6
	mulsd	%xmm9, %xmm13
	mulsd	%xmm2, %xmm12
	mulsd	%xmm2, %xmm10
	addsd	(%r14), %xmm10
	mulsd	%xmm2, %xmm11
	mulsd	%xmm2, %xmm6
	subsd	(%rdi), %xmm6
	mulsd	%xmm5, %xmm5
	subsd	%xmm12, %xmm10
	movsd	(%rcx,%r15), %xmm12
	movq	136(%rsp), %rcx
	mulsd	%xmm1, %xmm12
	subsd	%xmm11, %xmm6
	addsd	%xmm9, %xmm1
	mulsd	%xmm8, %xmm10
	mulsd	%xmm0, %xmm6
	addsd	%xmm8, %xmm1
	addsd	%xmm13, %xmm12
	addsd	%xmm1, %xmm0
	addsd	%xmm12, %xmm10
	mulsd	%xmm7, %xmm0
	subsd	%xmm6, %xmm10
	movapd	%xmm10, %xmm6
	movsd	(%rax,%rcx), %xmm10
	addsd	%xmm5, %xmm0
	movq	56(%rsp), %rcx
	mulsd	%xmm7, %xmm6
	mulsd	%xmm5, %xmm10
	addsd	%xmm10, %xmm6
	divsd	%xmm0, %xmm6
	movsd	%xmm6, (%rax,%r15)
	movsd	(%r14), %xmm1
	movq	24(%rsp), %r14
	movapd	%xmm4, %xmm6
	movsd	(%rdi), %xmm11
	movsd	(%r8,%r15), %xmm12
	divsd	(%rcx), %xmm6
	movsd	(%r14,%r15), %xmm10
	movq	96(%rsp), %rdi
	addsd	%xmm11, %xmm12
	movsd	0(%rbp), %xmm8
	movsd	(%r10), %xmm7
	addsd	%xmm1, %xmm10
	movsd	0(%r13), %xmm0
	movsd	(%r12), %xmm9
	mulsd	%xmm2, %xmm12
	addsd	%xmm0, %xmm0
	addsd	%xmm9, %xmm9
	mulsd	%xmm2, %xmm10
	addsd	(%r9), %xmm10
	movq	72(%rsp), %r9
	subsd	%xmm12, %xmm10
	movsd	(%r9,%rbx), %xmm12
	movsd	(%rdi,%rbx), %xmm13
	movq	32(%rsp), %rsi
	addsd	(%rdx,%r15), %xmm11
	movq	88(%rsp), %r14
	mulsd	%xmm0, %xmm12
	addsd	%xmm9, %xmm0
	movq	144(%rsp), %rdi
	addsd	(%rsi,%r15), %xmm1
	mulsd	%xmm9, %xmm13
	mulsd	%xmm2, %xmm11
	mulsd	%xmm8, %xmm10
	addsd	%xmm8, %xmm0
	mulsd	%xmm2, %xmm1
	subsd	(%r14), %xmm1
	addsd	%xmm13, %xmm12
	addsd	%xmm7, %xmm0
	subsd	%xmm11, %xmm1
	addsd	%xmm12, %xmm10
	mulsd	%xmm6, %xmm0
	mulsd	%xmm7, %xmm1
	addsd	%xmm5, %xmm0
	subsd	%xmm1, %xmm10
	movapd	%xmm10, %xmm1
	movsd	(%rax,%rdi), %xmm10
	mulsd	%xmm6, %xmm1
	mulsd	%xmm5, %xmm10
	addsd	%xmm10, %xmm1
	divsd	%xmm0, %xmm1
	movsd	%xmm1, (%rax,%rbx)
.L1316:
	addq	$8, %r11
	cmpq	%r11, 112(%rsp)
	jne	.L1317
	movl	104(%rsp), %r14d
	jmp	.L1314
	.p2align 4,,10
	.p2align 3
.L1366:
	movsd	%xmm4, 24(%rsp)
	call	update_cache_f
	movq	grid(%rip), %rax
	movsd	24(%rsp), %xmm4
	movq	%rax, 16(%rsp)
	movq	.LC3(%rip), %rax
	movq	%rax, %xmm2
	jmp	.L1313
	.p2align 4,,10
	.p2align 3
.L1362:
	movsd	%xmm4, 32(%rsp)
	movsd	%xmm5, 24(%rsp)
	call	update_cache_f
	movq	grid(%rip), %rax
	movsd	32(%rsp), %xmm4
	movsd	24(%rsp), %xmm5
	movq	%rax, 16(%rsp)
	movq	.LC3(%rip), %rax
	movq	%rax, %xmm3
	jmp	.L1321
	.p2align 4,,10
	.p2align 3
.L1365:
	movsd	%xmm4, 40(%rsp)
	movsd	%xmm5, 32(%rsp)
	movsd	%xmm3, 24(%rsp)
	call	update_cache_f
	movq	grid(%rip), %rax
	movsd	40(%rsp), %xmm4
	movsd	32(%rsp), %xmm5
	movsd	24(%rsp), %xmm3
	movq	%rax, 16(%rsp)
	movq	.LC3(%rip), %rax
	movq	%rax, %xmm2
	jmp	.L1328
	.cfi_endproc
.LFE286:
	.size	relax_viscosity, .-relax_viscosity
	.p2align 4
	.globl	array_new
	.type	array_new, @function
array_new:
.LFB24:
	.cfi_startproc
	subq	$8, %rsp
	.cfi_def_cfa_offset 16
	movl	$24, %edi
	call	malloc
	movq	$0, (%rax)
	movq	$0, 16(%rax)
	movq	$0, 8(%rax)
	addq	$8, %rsp
	.cfi_def_cfa_offset 8
	ret
	.cfi_endproc
.LFE24:
	.size	array_new, .-array_new
	.p2align 4
	.globl	array_free
	.type	array_free, @function
array_free:
.LFB25:
	.cfi_startproc
	pushq	%rbp
	.cfi_def_cfa_offset 16
	.cfi_offset 6, -16
	movq	%rdi, %rbp
	movq	(%rdi), %rdi
	call	free
	movq	%rbp, %rdi
	popq	%rbp
	.cfi_def_cfa_offset 8
	jmp	free
	.cfi_endproc
.LFE25:
	.size	array_free, .-array_free
	.p2align 4
	.globl	array_append
	.type	array_append, @function
array_append:
.LFB26:
	.cfi_startproc
	pushq	%r12
	.cfi_def_cfa_offset 16
	.cfi_offset 12, -16
	movq	%rsi, %r12
	pushq	%rbp
	.cfi_def_cfa_offset 24
	.cfi_offset 6, -24
	movq	%rdx, %rbp
	pushq	%rbx
	.cfi_def_cfa_offset 32
	.cfi_offset 3, -32
	movq	16(%rdi), %rax
	movq	%rdi, %rbx
	movq	8(%rdi), %rdx
	movq	(%rdi), %rdi
	leaq	(%rax,%rbp), %rcx
	cmpq	%rdx, %rcx
	jnb	.L1374
.L1372:
	movq	%rbp, %rdx
	movq	%r12, %rsi
	addq	%rax, %rdi
	call	memcpy
	addq	%rbp, 16(%rbx)
	popq	%rbx
	.cfi_remember_state
	.cfi_def_cfa_offset 24
	popq	%rbp
	.cfi_def_cfa_offset 16
	popq	%r12
	.cfi_def_cfa_offset 8
	ret
	.p2align 4,,10
	.p2align 3
.L1374:
	.cfi_restore_state
	movl	$4096, %esi
	cmpq	%rsi, %rbp
	cmovnb	%rbp, %rsi
	addq	%rdx, %rsi
	movq	%rsi, 8(%rbx)
	call	realloc
	movq	%rax, (%rbx)
	movq	%rax, %rdi
	movq	16(%rbx), %rax
	jmp	.L1372
	.cfi_endproc
.LFE26:
	.size	array_append, .-array_append
	.p2align 4
	.globl	array_shrink
	.type	array_shrink, @function
array_shrink:
.LFB27:
	.cfi_startproc
	pushq	%r12
	.cfi_def_cfa_offset 16
	.cfi_offset 12, -16
	pushq	%rbp
	.cfi_def_cfa_offset 24
	.cfi_offset 6, -24
	movq	%rdi, %rbp
	subq	$8, %rsp
	.cfi_def_cfa_offset 32
	movq	16(%rdi), %rsi
	movq	(%rdi), %rdi
	call	realloc
	movq	%rbp, %rdi
	movq	%rax, %r12
	call	free
	addq	$8, %rsp
	.cfi_def_cfa_offset 24
	movq	%r12, %rax
	popq	%rbp
	.cfi_def_cfa_offset 16
	popq	%r12
	.cfi_def_cfa_offset 8
	ret
	.cfi_endproc
.LFE27:
	.size	array_shrink, .-array_shrink
	.p2align 4
	.globl	normalize
	.type	normalize, @function
normalize:
.LFB29:
	.cfi_startproc
	subq	$40, %rsp
	.cfi_def_cfa_offset 48
	movsd	(%rdi), %xmm2
	movsd	8(%rdi), %xmm1
	pxor	%xmm4, %xmm4
	movapd	%xmm2, %xmm3
	movapd	%xmm1, %xmm0
	mulsd	%xmm2, %xmm3
	mulsd	%xmm1, %xmm0
	addsd	%xmm4, %xmm3
	addsd	%xmm3, %xmm0
	ucomisd	%xmm0, %xmm4
	ja	.L1382
	sqrtsd	%xmm0, %xmm0
.L1380:
	divsd	%xmm0, %xmm2
	divsd	%xmm0, %xmm1
	movsd	%xmm2, (%rdi)
	movsd	%xmm1, 8(%rdi)
	addq	$40, %rsp
	.cfi_remember_state
	.cfi_def_cfa_offset 8
	ret
.L1382:
	.cfi_restore_state
	movq	%rdi, 24(%rsp)
	movsd	%xmm1, 16(%rsp)
	movsd	%xmm2, 8(%rsp)
	call	sqrt
	movq	24(%rsp), %rdi
	movsd	16(%rsp), %xmm1
	movsd	8(%rsp), %xmm2
	jmp	.L1380
	.cfi_endproc
.LFE29:
	.size	normalize, .-normalize
	.p2align 4
	.globl	origin
	.type	origin, @function
origin:
.LFB30:
	.cfi_startproc
	movsd	8(%rsp), %xmm0
	movsd	%xmm0, X0(%rip)
	movsd	16(%rsp), %xmm0
	movsd	%xmm0, Y0(%rip)
	movsd	24(%rsp), %xmm0
	movsd	%xmm0, Z0(%rip)
	ret
	.cfi_endproc
.LFE30:
	.size	origin, .-origin
	.p2align 4
	.globl	size
	.type	size, @function
size:
.LFB31:
	.cfi_startproc
	movsd	%xmm0, L0(%rip)
	ret
	.cfi_endproc
.LFE31:
	.size	size, .-size
	.p2align 4
	.globl	add_boundary
	.type	add_boundary, @function
add_boundary:
.LFB33:
	.cfi_startproc
	pushq	%r12
	.cfi_def_cfa_offset 16
	.cfi_offset 12, -16
	movq	%rdi, %r12
	movq	boundaries(%rip), %rdi
	pushq	%rbp
	.cfi_def_cfa_offset 24
	.cfi_offset 6, -24
	pushq	%rbx
	.cfi_def_cfa_offset 32
	.cfi_offset 3, -32
	testq	%rdi, %rdi
	je	.L1390
	cmpq	$0, (%rdi)
	leaq	8(%rdi), %rax
	je	.L1390
	xorl	%edx, %edx
	.p2align 4,,10
	.p2align 3
.L1388:
	addq	$8, %rax
	movl	%edx, %ecx
	addl	$1, %edx
	cmpq	$0, -8(%rax)
	jne	.L1388
	leal	3(%rcx), %esi
	movslq	%esi, %rsi
	salq	$3, %rsi
	leaq	-16(%rsi), %rbp
	leaq	-8(%rsi), %rbx
.L1387:
	call	realloc
	movq	%r12, (%rax,%rbp)
	movq	%rax, boundaries(%rip)
	movq	$0, (%rax,%rbx)
	popq	%rbx
	.cfi_remember_state
	.cfi_def_cfa_offset 24
	popq	%rbp
	.cfi_def_cfa_offset 16
	popq	%r12
	.cfi_def_cfa_offset 8
	ret
	.p2align 4,,10
	.p2align 3
.L1390:
	.cfi_restore_state
	movl	$8, %ebx
	xorl	%ebp, %ebp
	movl	$16, %esi
	jmp	.L1387
	.cfi_endproc
.LFE33:
	.size	add_boundary, .-add_boundary
	.p2align 4
	.globl	free_boundaries
	.type	free_boundaries, @function
free_boundaries:
.LFB34:
	.cfi_startproc
	movq	boundaries(%rip), %r8
	testq	%r8, %r8
	je	.L1407
	pushq	%rbx
	.cfi_def_cfa_offset 16
	.cfi_offset 3, -16
	movq	(%r8), %rdi
	leaq	8(%r8), %rbx
	testq	%rdi, %rdi
	jne	.L1398
	jmp	.L1395
	.p2align 4,,10
	.p2align 3
.L1411:
	call	*%rax
	movq	(%rbx), %rdi
	addq	$8, %rbx
	testq	%rdi, %rdi
	je	.L1410
.L1398:
	movq	(%rdi), %rax
	testq	%rax, %rax
	jne	.L1411
	call	free
	movq	(%rbx), %rdi
	addq	$8, %rbx
	testq	%rdi, %rdi
	jne	.L1398
	.p2align 4,,10
	.p2align 3
.L1410:
	movq	boundaries(%rip), %r8
.L1395:
	movq	%r8, %rdi
	call	free
	popq	%rbx
	.cfi_def_cfa_offset 8
	movq	$0, boundaries(%rip)
	ret
	.p2align 4,,10
	.p2align 3
.L1407:
	.cfi_restore 3
	ret
	.cfi_endproc
.LFE34:
	.size	free_boundaries, .-free_boundaries
	.p2align 4
	.globl	list_len
	.type	list_len, @function
list_len:
.LFB35:
	.cfi_startproc
	xorl	%eax, %eax
	testq	%rdi, %rdi
	je	.L1415
	movl	(%rdi), %ecx
	testl	%ecx, %ecx
	js	.L1416
	.p2align 4,,10
	.p2align 3
.L1414:
	movl	4(%rdi), %edx
	addq	$4, %rdi
	addl	$1, %eax
	testl	%edx, %edx
	jns	.L1414
	ret
	.p2align 4,,10
	.p2align 3
.L1415:
	ret
	.p2align 4,,10
	.p2align 3
.L1416:
	ret
	.cfi_endproc
.LFE35:
	.size	list_len, .-list_len
	.p2align 4
	.globl	list_append
	.type	list_append, @function
list_append:
.LFB36:
	.cfi_startproc
	pushq	%r12
	.cfi_def_cfa_offset 16
	.cfi_offset 12, -16
	movl	%esi, %r12d
	pushq	%rbp
	.cfi_def_cfa_offset 24
	.cfi_offset 6, -24
	pushq	%rbx
	.cfi_def_cfa_offset 32
	.cfi_offset 3, -32
	testq	%rdi, %rdi
	je	.L1422
	movl	(%rdi), %r8d
	testl	%r8d, %r8d
	js	.L1422
	movq	%rdi, %rdx
	xorl	%eax, %eax
	.p2align 4,,10
	.p2align 3
.L1420:
	movl	4(%rdx), %esi
	movl	%eax, %ecx
	addq	$4, %rdx
	addl	$1, %eax
	testl	%esi, %esi
	jns	.L1420
	leal	3(%rcx), %esi
	movslq	%esi, %rsi
	salq	$2, %rsi
	leaq	-8(%rsi), %rbp
	leaq	-4(%rsi), %rbx
.L1419:
	call	realloc
	movl	%r12d, (%rax,%rbp)
	movl	$-1, (%rax,%rbx)
	popq	%rbx
	.cfi_remember_state
	.cfi_def_cfa_offset 24
	popq	%rbp
	.cfi_def_cfa_offset 16
	popq	%r12
	.cfi_def_cfa_offset 8
	ret
	.p2align 4,,10
	.p2align 3
.L1422:
	.cfi_restore_state
	movl	$4, %ebx
	xorl	%ebp, %ebp
	movl	$8, %esi
	jmp	.L1419
	.cfi_endproc
.LFE36:
	.size	list_append, .-list_append
	.section	.rodata.str1.1
.LC54:
	.string	"%s%d%s"
	.text
	.p2align 4
	.type	init_block_scalar, @function
init_block_scalar:
.LFB132:
	.cfi_startproc
	pushq	%rbp
	.cfi_def_cfa_offset 16
	.cfi_offset 6, -16
	movq	%rsp, %rbp
	.cfi_def_cfa_register 6
	pushq	%r15
	.cfi_offset 15, -24
	movq	%rdx, %r15
	pushq	%r14
	pushq	%r13
	.cfi_offset 14, -32
	.cfi_offset 13, -40
	movq	%rsi, %r13
	pushq	%r12
	.cfi_offset 12, -48
	movl	%edi, %r12d
	movq	%rsi, %rdi
	pushq	%rbx
	.cfi_offset 3, -56
	movl	%ecx, %ebx
	subq	$24, %rsp
	movl	%r8d, -52(%rbp)
	call	strlen
	movq	%r15, %rdi
	movq	%rax, %r14
	call	strlen
	leaq	25(%r14,%rax), %rax
	andq	$-16, %rax
	subq	%rax, %rsp
	movslq	%r12d, %rax
	leaq	(%rax,%rax,4), %rdx
	leaq	(%rax,%rdx,2), %r14
	salq	$4, %r14
	testl	%ebx, %ebx
	jne	.L1426
	movq	%r13, %rdx
	movq	%r15, %rcx
	movl	$.LC26, %esi
	movq	%rsp, %rdi
	xorl	%eax, %eax
	call	sprintf
	movl	-52(%rbp), %ecx
	movq	%rsp, %rsi
	movl	%r12d, %edi
	movq	_attribute(%rip), %rax
	movl	%ecx, 64(%rax,%r14)
	call	*init_scalar(%rip)
	movq	baseblock(%rip), %rdi
	movl	%r12d, %esi
	call	list_append
	movq	%rax, baseblock(%rip)
.L1427:
	movq	all(%rip), %rdi
	movl	%r12d, %esi
	call	list_append
	movq	%rax, all(%rip)
	leaq	-40(%rbp), %rsp
	popq	%rbx
	popq	%r12
	popq	%r13
	popq	%r14
	popq	%r15
	popq	%rbp
	.cfi_remember_state
	.cfi_def_cfa 7, 8
	ret
	.p2align 4,,10
	.p2align 3
.L1426:
	.cfi_restore_state
	movl	%ebx, %ecx
	movq	%rsp, %rdi
	movq	%r15, %r8
	movq	%r13, %rdx
	movl	$.LC54, %esi
	xorl	%eax, %eax
	negl	%ebx
	call	sprintf
	movq	_attribute(%rip), %rax
	movq	%rsp, %rsi
	movl	%r12d, %edi
	movl	%ebx, 64(%rax,%r14)
	call	*init_scalar(%rip)
	jmp	.L1427
	.cfi_endproc
.LFE132:
	.size	init_block_scalar, .-init_block_scalar
	.p2align 4
	.type	list_add_depends, @function
list_add_depends:
.LFB152:
	.cfi_startproc
	pushq	%r12
	.cfi_def_cfa_offset 16
	.cfi_offset 12, -16
	pushq	%rbp
	.cfi_def_cfa_offset 24
	.cfi_offset 6, -24
	movl	%esi, %ebp
	pushq	%rbx
	.cfi_def_cfa_offset 32
	.cfi_offset 3, -32
	testq	%rdi, %rdi
	je	.L1430
	movl	(%rdi), %eax
	testl	%eax, %eax
	js	.L1430
	cmpl	%eax, %esi
	je	.L1429
	movq	%rdi, %rax
	jmp	.L1432
	.p2align 4,,10
	.p2align 3
.L1433:
	cmpl	%edx, %ebp
	je	.L1429
.L1432:
	movl	4(%rax), %edx
	addq	$4, %rax
	testl	%edx, %edx
	jns	.L1433
.L1430:
	movslq	%ebp, %rax
	movq	_attribute(%rip), %r12
	leaq	(%rax,%rax,4), %rdx
	leaq	(%rax,%rdx,2), %rax
	salq	$4, %rax
	movq	72(%r12,%rax), %rbx
	testq	%rbx, %rbx
	je	.L1434
	movl	(%rbx), %esi
	testl	%esi, %esi
	js	.L1434
.L1436:
	movslq	%esi, %rax
	leaq	(%rax,%rax,4), %rdx
	leaq	(%rax,%rdx,2), %rax
	salq	$4, %rax
	movl	88(%r12,%rax), %eax
	testl	%eax, %eax
	jne	.L1448
.L1435:
	movl	4(%rbx), %esi
	addq	$4, %rbx
	testl	%esi, %esi
	jns	.L1436
.L1434:
	popq	%rbx
	.cfi_remember_state
	.cfi_def_cfa_offset 24
	movl	%ebp, %esi
	popq	%rbp
	.cfi_def_cfa_offset 16
	popq	%r12
	.cfi_def_cfa_offset 8
	jmp	list_append
	.p2align 4,,10
	.p2align 3
.L1448:
	.cfi_restore_state
	call	list_add_depends
	movq	%rax, %rdi
	jmp	.L1435
	.p2align 4,,10
	.p2align 3
.L1429:
	popq	%rbx
	.cfi_def_cfa_offset 24
	movq	%rdi, %rax
	popq	%rbp
	.cfi_def_cfa_offset 16
	popq	%r12
	.cfi_def_cfa_offset 8
	ret
	.cfi_endproc
.LFE152:
	.size	list_add_depends, .-list_add_depends
	.p2align 4
	.type	defaults_2, @function
defaults_2:
.LFB356:
	.cfi_startproc
	pushq	%r14
	.cfi_def_cfa_offset 16
	.cfi_offset 14, -16
	pushq	%r13
	.cfi_def_cfa_offset 24
	.cfi_offset 13, -24
	pushq	%r12
	.cfi_def_cfa_offset 32
	.cfi_offset 12, -32
	pushq	%rbp
	.cfi_def_cfa_offset 40
	.cfi_offset 6, -40
	movq	interfaces(%rip), %rbp
	pushq	%rbx
	.cfi_def_cfa_offset 48
	.cfi_offset 3, -48
	testq	%rbp, %rbp
	je	.L1461
	movl	0(%rbp), %ebx
	testl	%ebx, %ebx
	js	.L1461
	movq	_attribute(%rip), %r14
	jmp	.L1453
	.p2align 4,,10
	.p2align 3
.L1454:
	movl	4(%rbp), %ebx
	addq	$4, %rbp
	testl	%ebx, %ebx
	js	.L1461
.L1453:
	movslq	%ebx, %rax
	leaq	(%rax,%rax,4), %rdx
	leaq	(%rax,%rdx,2), %rax
	salq	$4, %rax
	movq	128(%r14,%rax), %r13
	testq	%r13, %r13
	je	.L1454
	movslq	0(%r13), %rax
	testl	%eax, %eax
	js	.L1454
	.p2align 4,,10
	.p2align 3
.L1459:
	leaq	(%rax,%rax,4), %rdx
	leaq	(%rax,%rdx,2), %r12
	salq	$4, %r12
	addq	%r14, %r12
	movq	72(%r12), %rdi
	testq	%rdi, %rdi
	je	.L1455
	movl	(%rdi), %eax
	testl	%eax, %eax
	js	.L1455
	cmpl	%ebx, %eax
	je	.L1456
	movq	%rdi, %rdx
	jmp	.L1457
	.p2align 4,,10
	.p2align 3
.L1458:
	cmpl	%ebx, %ecx
	je	.L1456
.L1457:
	movl	4(%rdx), %ecx
	addq	$4, %rdx
	testl	%ecx, %ecx
	jns	.L1458
.L1455:
	movl	%ebx, %esi
	call	list_append
	movq	%rax, %rdi
.L1456:
	movslq	4(%r13), %rax
	addq	$4, %r13
	movq	%rdi, 72(%r12)
	testl	%eax, %eax
	jns	.L1459
	movl	4(%rbp), %ebx
	addq	$4, %rbp
	testl	%ebx, %ebx
	jns	.L1453
.L1461:
	popq	%rbx
	.cfi_def_cfa_offset 40
	xorl	%eax, %eax
	popq	%rbp
	.cfi_def_cfa_offset 32
	popq	%r12
	.cfi_def_cfa_offset 24
	popq	%r13
	.cfi_def_cfa_offset 16
	popq	%r14
	.cfi_def_cfa_offset 8
	ret
	.cfi_endproc
.LFE356:
	.size	defaults_2, .-defaults_2
	.p2align 4
	.type	dump_list, @function
dump_list:
.LFB268:
	.cfi_startproc
	pushq	%rbp
	.cfi_def_cfa_offset 16
	.cfi_offset 6, -16
	pushq	%rbx
	.cfi_def_cfa_offset 24
	.cfi_offset 3, -24
	movq	%rdi, %rbx
	subq	$24, %rsp
	.cfi_def_cfa_offset 48
	cmpl	$65535, cm(%rip)
	jle	.L1468
.L1470:
	xorl	%eax, %eax
.L1469:
	testq	%rbx, %rbx
	je	.L1467
	movl	(%rbx), %esi
	testl	%esi, %esi
	js	.L1467
	movq	_attribute(%rip), %rbp
	.p2align 4,,10
	.p2align 3
.L1477:
	movslq	%esi, %rdx
	leaq	(%rdx,%rdx,4), %rcx
	leaq	(%rdx,%rcx,2), %rdx
	salq	$4, %rdx
	addq	%rbp, %rdx
	movl	56(%rdx), %ecx
	testl	%ecx, %ecx
	jne	.L1472
	cmpb	$0, 60(%rdx)
	jne	.L1472
	cmpl	%esi, cm(%rip)
	je	.L1472
	testq	%rax, %rax
	je	.L1473
	movl	(%rax), %edx
	testl	%edx, %edx
	js	.L1473
	cmpl	%esi, %edx
	je	.L1472
	movq	%rax, %rdx
	jmp	.L1475
	.p2align 4,,10
	.p2align 3
.L1476:
	cmpl	%esi, %ecx
	je	.L1472
.L1475:
	movl	4(%rdx), %ecx
	addq	$4, %rdx
	testl	%ecx, %ecx
	jns	.L1476
.L1473:
	movq	%rax, %rdi
	call	list_append
	.p2align 4,,10
	.p2align 3
.L1472:
	movl	4(%rbx), %esi
	addq	$4, %rbx
	testl	%esi, %esi
	jns	.L1477
.L1467:
	addq	$24, %rsp
	.cfi_remember_state
	.cfi_def_cfa_offset 24
	popq	%rbx
	.cfi_def_cfa_offset 16
	popq	%rbp
	.cfi_def_cfa_offset 8
	ret
	.p2align 4,,10
	.p2align 3
.L1468:
	.cfi_restore_state
	movl	cm(%rip), %esi
	movl	%esi, 8(%rsp)
	testl	%esi, %esi
	js	.L1470
	xorl	%edi, %edi
	call	list_append
	jmp	.L1469
	.cfi_endproc
.LFE268:
	.size	dump_list, .-dump_list
	.p2align 4
	.type	multigrid_restriction, @function
multigrid_restriction:
.LFB203:
	.cfi_startproc
	testq	%rdi, %rdi
	je	.L1576
	pushq	%r15
	.cfi_def_cfa_offset 16
	.cfi_offset 15, -16
	pushq	%r14
	.cfi_def_cfa_offset 24
	.cfi_offset 14, -24
	pushq	%r13
	.cfi_def_cfa_offset 32
	.cfi_offset 13, -32
	pushq	%r12
	.cfi_def_cfa_offset 40
	.cfi_offset 12, -40
	pushq	%rbp
	.cfi_def_cfa_offset 48
	.cfi_offset 6, -48
	pushq	%rbx
	.cfi_def_cfa_offset 56
	.cfi_offset 3, -56
	movq	%rdi, %rbx
	subq	$72, %rsp
	.cfi_def_cfa_offset 128
	movl	(%rdi), %r13d
	testl	%r13d, %r13d
	js	.L1486
	movq	$0, (%rsp)
	xorl	%ebp, %ebp
	xorl	%r14d, %r14d
	.p2align 4,,10
	.p2align 3
.L1515:
	cmpl	$65535, %r13d
	jg	.L1490
	movslq	%r13d, %rax
	leaq	(%rax,%rax,4), %rdx
	leaq	(%rax,%rdx,2), %r12
	salq	$4, %r12
	addq	_attribute(%rip), %r12
	movl	64(%r12), %edx
	testl	%edx, %edx
	jle	.L1490
	movq	104(%r12), %rax
	cmpq	$restriction_average, %rax
	je	.L1582
	cmpq	$no_restriction, %rax
	je	.L1490
	testq	%r14, %r14
	je	.L1500
	movl	(%r14), %eax
	testl	%eax, %eax
	js	.L1500
	cmpl	%eax, %r13d
	je	.L1501
	movq	%r14, %rax
	jmp	.L1502
	.p2align 4,,10
	.p2align 3
.L1503:
	cmpl	%edx, %r13d
	je	.L1501
.L1502:
	movl	4(%rax), %edx
	addq	$4, %rax
	testl	%edx, %edx
	jns	.L1503
.L1500:
	movq	%r14, %rdi
	movl	%r13d, %esi
	call	list_append
	movq	%rax, %r14
.L1501:
	movl	56(%r12), %eax
	testl	%eax, %eax
	jne	.L1583
	testq	%rbp, %rbp
	je	.L1511
	movl	0(%rbp), %eax
	testl	%eax, %eax
	js	.L1511
	cmpl	%eax, %r13d
	je	.L1490
	movq	%rbp, %rax
	jmp	.L1513
	.p2align 4,,10
	.p2align 3
.L1514:
	cmpl	%edx, %r13d
	je	.L1490
.L1513:
	movl	4(%rax), %edx
	addq	$4, %rax
	testl	%edx, %edx
	jns	.L1514
.L1511:
	movl	%r13d, %esi
.L1579:
	movq	%rbp, %rdi
	call	list_append
	movq	%rax, %rbp
	.p2align 4,,10
	.p2align 3
.L1490:
	movl	4(%rbx), %r13d
	addq	$4, %rbx
	testl	%r13d, %r13d
	jns	.L1515
.L1590:
	movq	(%rsp), %rax
	movq	%r14, 16(%rsp)
	orq	%r14, %rax
	je	.L1486
	movq	grid(%rip), %rax
	movl	16(%rax), %edx
	movl	%edx, %r14d
	subl	$1, %r14d
	js	.L1516
	movslq	%r14d, %rcx
	leaq	0(,%rcx,8), %rbx
	movq	%rbx, 24(%rsp)
	cmpl	%edx, %r14d
	jle	.L1584
	.p2align 4,,10
	.p2align 3
.L1517:
	movq	boundaries(%rip), %rbx
	testq	%rbx, %rbx
	je	.L1534
.L1530:
	movq	(%rbx), %rdi
	addq	$8, %rbx
	testq	%rdi, %rdi
	je	.L1534
.L1533:
	movq	8(%rdi), %rax
	testq	%rax, %rax
	je	.L1530
	addq	$8, %rbx
	movl	%r14d, %edx
	movq	%rbp, %rsi
	call	*%rax
	movq	-8(%rbx), %rdi
	testq	%rdi, %rdi
	jne	.L1533
.L1534:
	subl	$1, %r14d
	subq	$8, 24(%rsp)
	cmpl	$-1, %r14d
	je	.L1516
	movq	grid(%rip), %rax
	movl	16(%rax), %edx
	cmpl	%edx, %r14d
	jg	.L1517
.L1584:
	cmpb	$0, 128(%rax)
	jne	.L1585
.L1518:
	movq	96(%rax), %rdx
	movq	24(%rsp), %rbx
	leaq	(%rdx,%rbx,2), %rdx
	movl	8(%rdx), %ecx
	movq	(%rdx), %r13
	testl	%ecx, %ecx
	jle	.L1517
	leal	1(%r14), %edx
	movq	%rbp, 40(%rsp)
	movslq	%edx, %rdx
	leaq	0(,%rdx,8), %rsi
	leal	-1(%rcx), %edx
	movq	%rsi, 32(%rsp)
	leaq	8(%r13,%rdx,8), %rsi
	movq	%rsi, 8(%rsp)
	.p2align 4,,10
	.p2align 3
.L1529:
	movq	24(%rax), %rdx
	movl	0(%r13), %ebp
	movslq	4(%r13), %rsi
	movq	(%rdx,%rbx), %rax
	movq	%rsi, %r12
	movq	(%rax), %rax
	movq	16(%rax), %rcx
	movslq	%ebp, %rax
	movq	(%rcx,%rax,8), %rax
	movq	(%rax,%rsi,8), %rax
	testb	$2, (%rax)
	jne	.L1523
	cmpq	$0, (%rsp)
	jne	.L1521
.L1525:
	movq	16(%rsp), %r15
	movl	(%r15), %edx
	testl	%edx, %edx
	js	.L1523
	.p2align 4,,10
	.p2align 3
.L1522:
	movslq	%edx, %rax
	addq	$4, %r15
	movl	%ebp, 52(%rsp)
	movl	%r14d, %esi
	leaq	(%rax,%rax,4), %rcx
	movl	%r12d, 56(%rsp)
	movq	52(%rsp), %rdi
	leaq	(%rax,%rcx,2), %rax
	movl	%r14d, 60(%rsp)
	salq	$4, %rax
	addq	_attribute(%rip), %rax
	call	*104(%rax)
	movl	(%r15), %edx
	testl	%edx, %edx
	jns	.L1522
.L1523:
	addq	$8, %r13
	cmpq	8(%rsp), %r13
	je	.L1586
.L1520:
	movq	grid(%rip), %rax
	jmp	.L1529
.L1516:
	movq	(%rsp), %rdi
	call	free
	movq	16(%rsp), %rdi
	call	free
	addq	$72, %rsp
	.cfi_remember_state
	.cfi_def_cfa_offset 56
	movq	%rbp, %rdi
	popq	%rbx
	.cfi_restore 3
	.cfi_def_cfa_offset 48
	popq	%rbp
	.cfi_restore 6
	.cfi_def_cfa_offset 40
	popq	%r12
	.cfi_restore 12
	.cfi_def_cfa_offset 32
	popq	%r13
	.cfi_restore 13
	.cfi_def_cfa_offset 24
	popq	%r14
	.cfi_restore 14
	.cfi_def_cfa_offset 16
	popq	%r15
	.cfi_restore 15
	.cfi_def_cfa_offset 8
	jmp	free
.L1583:
	.cfi_restore_state
	movl	48(%r12), %esi
	testq	%rbp, %rbp
	je	.L1505
	movl	0(%rbp), %eax
	testl	%eax, %eax
	js	.L1505
	movq	%rbp, %rcx
	movl	%eax, %edx
	jmp	.L1507
	.p2align 4,,10
	.p2align 3
.L1587:
	movl	4(%rcx), %edx
	addq	$4, %rcx
	testl	%edx, %edx
	js	.L1505
.L1507:
	cmpl	%edx, %esi
	jne	.L1587
	movl	52(%r12), %esi
	jmp	.L1536
	.p2align 4,,10
	.p2align 3
.L1521:
	movq	(%rsp), %rax
	movslq	(%rax), %rax
	testl	%eax, %eax
	js	.L1528
	leal	(%rbp,%rbp), %r9d
	leal	(%r12,%r12), %r8d
	sarl	%r9d
	sarl	%r8d
	leal	-2(%rsi,%rsi), %esi
	leal	-2(%rbp,%rbp), %edi
	movslq	%r9d, %r9
	movslq	%r8d, %r8
	movslq	%esi, %r10
	addl	$1, %esi
	movq	(%rcx,%r9,8), %rcx
	movslq	%edi, %rdi
	movslq	%esi, %r9
	salq	$3, %r10
	salq	$3, %r9
	movq	(%rcx,%r8,8), %r15
	movq	32(%rsp), %rcx
	movq	(%rsp), %r8
	movq	(%rdx,%rcx), %rdx
	movq	(%rdx), %rdx
	movq	16(%rdx), %rdx
	leaq	(%rdx,%rdi,8), %r11
	jmp	.L1527
	.p2align 4,,10
	.p2align 3
.L1588:
	mulsd	.LC3(%rip), %xmm0
	addq	$4, %r8
	movsd	%xmm0, (%r15,%rax,8)
	movslq	(%r8), %rax
	testl	%eax, %eax
	js	.L1528
.L1527:
	movl	%ebp, 52(%rsp)
	addq	$1, %rax
	xorl	%ecx, %ecx
	pxor	%xmm0, %xmm0
	movl	%r12d, 56(%rsp)
	leaq	0(,%rax,8), %rsi
	movl	%r14d, 60(%rsp)
.L1526:
	movq	(%r11,%rcx,8), %rdx
	movq	(%rdx,%r10), %rdi
	movq	(%rdx,%r9), %rdx
	addsd	(%rdi,%rsi), %xmm0
	addsd	(%rdx,%rsi), %xmm0
	cmpq	$1, %rcx
	je	.L1588
	movl	$1, %ecx
	jmp	.L1526
	.p2align 4,,10
	.p2align 3
.L1528:
	cmpq	$0, 16(%rsp)
	jne	.L1525
	addq	$8, %r13
	cmpq	8(%rsp), %r13
	jne	.L1520
.L1586:
	movq	40(%rsp), %rbp
	jmp	.L1517
.L1585:
	call	update_cache_f
	movq	grid(%rip), %rax
	jmp	.L1518
.L1486:
	addq	$72, %rsp
	.cfi_remember_state
	.cfi_def_cfa_offset 56
	popq	%rbx
	.cfi_def_cfa_offset 48
	popq	%rbp
	.cfi_def_cfa_offset 40
	popq	%r12
	.cfi_def_cfa_offset 32
	popq	%r13
	.cfi_def_cfa_offset 24
	popq	%r14
	.cfi_def_cfa_offset 16
	popq	%r15
	.cfi_def_cfa_offset 8
	ret
.L1582:
	.cfi_restore_state
	movq	(%rsp), %rsi
	testq	%rsi, %rsi
	je	.L1492
	movl	(%rsi), %eax
	testl	%eax, %eax
	js	.L1492
	cmpl	%eax, %r13d
	je	.L1493
	movq	%rsi, %rax
	jmp	.L1494
	.p2align 4,,10
	.p2align 3
.L1495:
	cmpl	%edx, %r13d
	je	.L1493
.L1494:
	movl	4(%rax), %edx
	addq	$4, %rax
	testl	%edx, %edx
	jns	.L1495
.L1492:
	movq	(%rsp), %rdi
	movl	%r13d, %esi
	call	list_append
	movq	%rax, (%rsp)
.L1493:
	testq	%rbp, %rbp
	je	.L1511
	movl	0(%rbp), %eax
	testl	%eax, %eax
	js	.L1511
	cmpl	%eax, %r13d
	je	.L1490
	movq	%rbp, %rax
	jmp	.L1498
	.p2align 4,,10
	.p2align 3
.L1499:
	cmpl	%edx, %r13d
	je	.L1490
.L1498:
	movl	4(%rax), %edx
	addq	$4, %rax
	testl	%edx, %edx
	jns	.L1499
	jmp	.L1511
.L1505:
	movq	%rbp, %rdi
	call	list_append
	movl	52(%r12), %esi
	movq	%rax, %rbp
	testq	%rax, %rax
	je	.L1579
	movl	(%rax), %eax
	testl	%eax, %eax
	js	.L1579
.L1536:
	movq	%rbp, %rdx
	jmp	.L1510
	.p2align 4,,10
	.p2align 3
.L1589:
	movl	4(%rdx), %eax
	addq	$4, %rdx
	testl	%eax, %eax
	js	.L1579
.L1510:
	cmpl	%esi, %eax
	jne	.L1589
	movl	4(%rbx), %r13d
	addq	$4, %rbx
	testl	%r13d, %r13d
	jns	.L1515
	jmp	.L1590
.L1576:
	.cfi_def_cfa_offset 8
	.cfi_restore 3
	.cfi_restore 6
	.cfi_restore 12
	.cfi_restore 13
	.cfi_restore 14
	.cfi_restore 15
	ret
	.cfi_endproc
.LFE203:
	.size	multigrid_restriction, .-multigrid_restriction
	.p2align 4
	.globl	list_prepend
	.type	list_prepend, @function
list_prepend:
.LFB37:
	.cfi_startproc
	pushq	%r13
	.cfi_def_cfa_offset 16
	.cfi_offset 13, -16
	pushq	%r12
	.cfi_def_cfa_offset 24
	.cfi_offset 12, -24
	movl	%esi, %r12d
	pushq	%rbp
	.cfi_def_cfa_offset 32
	.cfi_offset 6, -32
	pushq	%rbx
	.cfi_def_cfa_offset 40
	.cfi_offset 3, -40
	subq	$8, %rsp
	.cfi_def_cfa_offset 48
	testq	%rdi, %rdi
	je	.L1592
	movl	(%rdi), %esi
	testl	%esi, %esi
	js	.L1593
	movq	%rdi, %rdx
	xorl	%eax, %eax
	.p2align 4,,10
	.p2align 3
.L1594:
	movl	4(%rdx), %ecx
	movslq	%eax, %rbx
	addq	$4, %rdx
	addl	$1, %eax
	testl	%ecx, %ecx
	jns	.L1594
	leal	3(%rbx), %ebp
	movslq	%ebp, %rbp
	salq	$2, %rbp
	movq	%rbp, %rsi
	call	realloc
	leaq	4(,%rbx,4), %rdx
	movq	%rax, %r13
	movq	%rbx, %rax
	negq	%rax
	salq	$2, %rax
	leaq	-12(%rbp,%rax), %rsi
	leaq	-8(%rbp,%rax), %rdi
	subq	$4, %rbp
	addq	%r13, %rsi
	addq	%r13, %rdi
	call	memmove
.L1596:
	movl	%r12d, 0(%r13)
	movq	%r13, %rax
	movl	$-1, 0(%r13,%rbp)
	addq	$8, %rsp
	.cfi_remember_state
	.cfi_def_cfa_offset 40
	popq	%rbx
	.cfi_def_cfa_offset 32
	popq	%rbp
	.cfi_def_cfa_offset 24
	popq	%r12
	.cfi_def_cfa_offset 16
	popq	%r13
	.cfi_def_cfa_offset 8
	ret
	.p2align 4,,10
	.p2align 3
.L1592:
	.cfi_restore_state
	movl	$8, %edi
	movl	$4, %ebp
	call	malloc
	movq	%rax, %r13
	jmp	.L1596
.L1593:
	movl	$8, %esi
	movl	$4, %ebp
	call	realloc
	movq	%rax, %r13
	jmp	.L1596
	.cfi_endproc
.LFE37:
	.size	list_prepend, .-list_prepend
	.p2align 4
	.globl	list_add
	.type	list_add, @function
list_add:
.LFB38:
	.cfi_startproc
	testq	%rdi, %rdi
	je	.L1601
	movl	(%rdi), %eax
	testl	%eax, %eax
	js	.L1601
	movq	%rdi, %rdx
	jmp	.L1603
	.p2align 4,,10
	.p2align 3
.L1608:
	movl	4(%rdx), %eax
	addq	$4, %rdx
	testl	%eax, %eax
	js	.L1601
.L1603:
	cmpl	%eax, %esi
	jne	.L1608
	movq	%rdi, %rax
	ret
	.p2align 4,,10
	.p2align 3
.L1601:
	jmp	list_append
	.cfi_endproc
.LFE38:
	.size	list_add, .-list_add
	.p2align 4
	.globl	list_lookup
	.type	list_lookup, @function
list_lookup:
.LFB39:
	.cfi_startproc
	xorl	%r8d, %r8d
	testq	%rdi, %rdi
	je	.L1609
	movl	(%rdi), %eax
	testl	%eax, %eax
	jns	.L1611
	jmp	.L1609
	.p2align 4,,10
	.p2align 3
.L1618:
	movl	4(%rdi), %eax
	addq	$4, %rdi
	testl	%eax, %eax
	js	.L1617
.L1611:
	cmpl	%eax, %esi
	jne	.L1618
	movl	$1, %r8d
.L1609:
	movl	%r8d, %eax
	ret
	.p2align 4,,10
	.p2align 3
.L1617:
	xorl	%r8d, %r8d
	movl	%r8d, %eax
	ret
	.cfi_endproc
.LFE39:
	.size	list_lookup, .-list_lookup
	.p2align 4
	.globl	list_copy
	.type	list_copy, @function
list_copy:
.LFB40:
	.cfi_startproc
	testq	%rdi, %rdi
	je	.L1622
	pushq	%rbx
	.cfi_def_cfa_offset 16
	.cfi_offset 3, -16
	movl	(%rdi), %esi
	movq	%rdi, %rbx
	xorl	%edi, %edi
	testl	%esi, %esi
	js	.L1619
	.p2align 4,,10
	.p2align 3
.L1621:
	call	list_append
	movl	4(%rbx), %esi
	addq	$4, %rbx
	movq	%rax, %rdi
	testl	%esi, %esi
	jns	.L1621
.L1619:
	movq	%rdi, %rax
	popq	%rbx
	.cfi_def_cfa_offset 8
	ret
	.p2align 4,,10
	.p2align 3
.L1622:
	.cfi_restore 3
	xorl	%eax, %eax
	ret
	.cfi_endproc
.LFE40:
	.size	list_copy, .-list_copy
	.p2align 4
	.globl	list_concat
	.type	list_concat, @function
list_concat:
.LFB41:
	.cfi_startproc
	pushq	%rbp
	.cfi_def_cfa_offset 16
	.cfi_offset 6, -16
	movq	%rsi, %rbp
	pushq	%rbx
	.cfi_def_cfa_offset 24
	.cfi_offset 3, -24
	subq	$8, %rsp
	.cfi_def_cfa_offset 32
	testq	%rdi, %rdi
	je	.L1634
	movl	(%rdi), %esi
	movq	%rdi, %rbx
	xorl	%edi, %edi
	testl	%esi, %esi
	js	.L1630
	.p2align 4,,10
	.p2align 3
.L1631:
	call	list_append
	movl	4(%rbx), %esi
	addq	$4, %rbx
	movq	%rax, %rdi
	testl	%esi, %esi
	jns	.L1631
.L1630:
	testq	%rbp, %rbp
	jne	.L1642
	jmp	.L1629
	.p2align 4,,10
	.p2align 3
.L1633:
	call	list_append
	addq	$4, %rbp
	movq	%rax, %rdi
.L1642:
	movl	0(%rbp), %esi
	testl	%esi, %esi
	jns	.L1633
.L1629:
	addq	$8, %rsp
	.cfi_remember_state
	.cfi_def_cfa_offset 24
	movq	%rdi, %rax
	popq	%rbx
	.cfi_def_cfa_offset 16
	popq	%rbp
	.cfi_def_cfa_offset 8
	ret
	.p2align 4,,10
	.p2align 3
.L1634:
	.cfi_restore_state
	xorl	%edi, %edi
	jmp	.L1630
	.cfi_endproc
.LFE41:
	.size	list_concat, .-list_concat
	.section	.rodata.str1.1
.LC55:
	.string	"{"
.LC56:
	.string	","
.LC57:
	.string	"}\n"
.LC58:
	.string	"{}\n"
	.text
	.p2align 4
	.globl	list_print
	.type	list_print, @function
list_print:
.LFB42:
	.cfi_startproc
	pushq	%r13
	.cfi_def_cfa_offset 16
	.cfi_offset 13, -16
	movq	%rsi, %r13
	pushq	%r12
	.cfi_def_cfa_offset 24
	.cfi_offset 12, -24
	pushq	%rbp
	.cfi_def_cfa_offset 32
	.cfi_offset 6, -32
	pushq	%rbx
	.cfi_def_cfa_offset 40
	.cfi_offset 3, -40
	movq	%rdi, %rbx
	movl	$.LC58, %edi
	subq	$8, %rsp
	.cfi_def_cfa_offset 48
	testq	%rbx, %rbx
	je	.L1644
	movslq	(%rbx), %rax
	testl	%eax, %eax
	js	.L1644
	xorl	%r12d, %r12d
	movl	$.LC56, %ebp
	.p2align 4,,10
	.p2align 3
.L1646:
	leaq	(%rax,%rax,4), %rdx
	movl	$.LC26, %esi
	movq	%r13, %rdi
	leaq	(%rax,%rdx,2), %rax
	movl	$.LC55, %edx
	salq	$4, %rax
	addq	_attribute(%rip), %rax
	testq	%r12, %r12
	cmovne	%rbp, %rdx
	movq	32(%rax), %rcx
	addq	$1, %r12
	xorl	%eax, %eax
	call	fprintf
	movslq	(%rbx,%r12,4), %rax
	testl	%eax, %eax
	jns	.L1646
	movl	$.LC57, %edi
.L1644:
	addq	$8, %rsp
	.cfi_def_cfa_offset 40
	movq	%r13, %rsi
	popq	%rbx
	.cfi_def_cfa_offset 32
	popq	%rbp
	.cfi_def_cfa_offset 24
	popq	%r12
	.cfi_def_cfa_offset 16
	popq	%r13
	.cfi_def_cfa_offset 8
	jmp	fputs
	.cfi_endproc
.LFE42:
	.size	list_print, .-list_print
	.p2align 4
	.globl	vectors_len
	.type	vectors_len, @function
vectors_len:
.LFB43:
	.cfi_startproc
	xorl	%eax, %eax
	testq	%rdi, %rdi
	je	.L1656
	movl	(%rdi), %ecx
	testl	%ecx, %ecx
	js	.L1657
	.p2align 4,,10
	.p2align 3
.L1655:
	movl	8(%rdi), %edx
	addq	$8, %rdi
	addl	$1, %eax
	testl	%edx, %edx
	jns	.L1655
	ret
	.p2align 4,,10
	.p2align 3
.L1656:
	ret
	.p2align 4,,10
	.p2align 3
.L1657:
	ret
	.cfi_endproc
.LFE43:
	.size	vectors_len, .-vectors_len
	.p2align 4
	.globl	vectors_append
	.type	vectors_append, @function
vectors_append:
.LFB44:
	.cfi_startproc
	pushq	%r12
	.cfi_def_cfa_offset 16
	.cfi_offset 12, -16
	movq	%rsi, %r12
	pushq	%rbp
	.cfi_def_cfa_offset 24
	.cfi_offset 6, -24
	pushq	%rbx
	.cfi_def_cfa_offset 32
	.cfi_offset 3, -32
	testq	%rdi, %rdi
	je	.L1663
	movl	(%rdi), %r8d
	testl	%r8d, %r8d
	js	.L1663
	movq	%rdi, %rdx
	xorl	%eax, %eax
	.p2align 4,,10
	.p2align 3
.L1661:
	movl	8(%rdx), %esi
	movl	%eax, %ecx
	addq	$8, %rdx
	addl	$1, %eax
	testl	%esi, %esi
	jns	.L1661
	leal	3(%rcx), %esi
	movslq	%esi, %rsi
	salq	$3, %rsi
	leaq	-16(%rsi), %rbp
	leaq	-8(%rsi), %rbx
.L1660:
	call	realloc
	movl	$4294967295, %ecx
	movq	%r12, (%rax,%rbp)
	movq	%rcx, (%rax,%rbx)
	popq	%rbx
	.cfi_remember_state
	.cfi_def_cfa_offset 24
	popq	%rbp
	.cfi_def_cfa_offset 16
	popq	%r12
	.cfi_def_cfa_offset 8
	ret
	.p2align 4,,10
	.p2align 3
.L1663:
	.cfi_restore_state
	movl	$8, %ebx
	xorl	%ebp, %ebp
	movl	$16, %esi
	jmp	.L1660
	.cfi_endproc
.LFE44:
	.size	vectors_append, .-vectors_append
	.p2align 4
	.type	tree_boundary_level, @function
tree_boundary_level:
.LFB220:
	.cfi_startproc
	pushq	%r15
	.cfi_def_cfa_offset 16
	.cfi_offset 15, -16
	pushq	%r14
	.cfi_def_cfa_offset 24
	.cfi_offset 14, -24
	pushq	%r13
	.cfi_def_cfa_offset 32
	.cfi_offset 13, -32
	pushq	%r12
	.cfi_def_cfa_offset 40
	.cfi_offset 12, -40
	pushq	%rbp
	.cfi_def_cfa_offset 48
	.cfi_offset 6, -48
	pushq	%rbx
	.cfi_def_cfa_offset 56
	.cfi_offset 3, -56
	subq	$136, %rsp
	.cfi_def_cfa_offset 192
	movq	grid(%rip), %rax
	movq	%rdi, 8(%rsp)
	movl	%esi, 76(%rsp)
	testl	%esi, %esi
	jns	.L1667
	movl	16(%rax), %ecx
	movl	%ecx, 76(%rsp)
.L1667:
	cmpb	$0, 128(%rax)
	jne	.L1895
.L1668:
	movl	20(%rax), %ecx
	movl	$1, %edx
	addl	%ecx, %ecx
	salq	%cl, %rdx
	cmpq	%rdx, 8(%rax)
	je	.L1896
	movq	8(%rsp), %r12
	testq	%r12, %r12
	je	.L1666
	movl	(%r12), %ebp
	testl	%ebp, %ebp
	js	.L1666
	movq	$0, 64(%rsp)
	xorl	%r14d, %r14d
	xorl	%r15d, %r15d
	xorl	%r13d, %r13d
	.p2align 4,,10
	.p2align 3
.L1704:
	cmpl	$65535, %ebp
	jg	.L1675
	movslq	%ebp, %rax
	leaq	(%rax,%rax,4), %rdx
	leaq	(%rax,%rdx,2), %rbx
	salq	$4, %rbx
	addq	_attribute(%rip), %rbx
	movq	104(%rbx), %rax
	cmpq	$restriction_average, %rax
	je	.L1897
	cmpq	$no_restriction, %rax
	je	.L1675
	testq	%r15, %r15
	je	.L1685
	movl	(%r15), %eax
	testl	%eax, %eax
	js	.L1685
	cmpl	%ebp, %eax
	je	.L1686
	movq	%r15, %rax
	jmp	.L1687
	.p2align 4,,10
	.p2align 3
.L1688:
	cmpl	%ebp, %edx
	je	.L1686
.L1687:
	movl	4(%rax), %edx
	addq	$4, %rax
	testl	%edx, %edx
	jns	.L1688
.L1685:
	movq	%r15, %rdi
	movl	%ebp, %esi
	call	list_append
	movq	%rax, %r15
.L1686:
	movl	56(%rbx), %eax
	testl	%eax, %eax
	je	.L1689
	movl	48(%rbx), %esi
	testq	%r14, %r14
	je	.L1690
	movl	(%r14), %eax
	testl	%eax, %eax
	js	.L1690
	movq	%r14, %rcx
	movl	%eax, %edx
	jmp	.L1692
	.p2align 4,,10
	.p2align 3
.L1898:
	movl	4(%rcx), %edx
	addq	$4, %rcx
	testl	%edx, %edx
	js	.L1690
.L1692:
	cmpl	%edx, %esi
	jne	.L1898
	movl	52(%rbx), %esi
	jmp	.L1785
.L1896:
	movq	boundaries(%rip), %rbx
	testq	%rbx, %rbx
	je	.L1666
	movq	8(%rsp), %rbp
	movl	76(%rsp), %r12d
.L1670:
	movq	(%rbx), %rdi
	addq	$8, %rbx
	testq	%rdi, %rdi
	je	.L1666
.L1673:
	movq	8(%rdi), %rax
	testq	%rax, %rax
	je	.L1670
	addq	$8, %rbx
	movl	%r12d, %edx
	movq	%rbp, %rsi
	call	*%rax
	movq	-8(%rbx), %rdi
	testq	%rdi, %rdi
	jne	.L1673
.L1666:
	addq	$136, %rsp
	.cfi_remember_state
	.cfi_def_cfa_offset 56
	popq	%rbx
	.cfi_def_cfa_offset 48
	popq	%rbp
	.cfi_def_cfa_offset 40
	popq	%r12
	.cfi_def_cfa_offset 32
	popq	%r13
	.cfi_def_cfa_offset 24
	popq	%r14
	.cfi_def_cfa_offset 16
	popq	%r15
	.cfi_def_cfa_offset 8
	ret
.L1689:
	.cfi_restore_state
	testq	%r14, %r14
	je	.L1696
	movl	(%r14), %eax
	testl	%eax, %eax
	js	.L1696
	cmpl	%ebp, %eax
	je	.L1697
	movq	%r14, %rax
	jmp	.L1698
	.p2align 4,,10
	.p2align 3
.L1699:
	cmpl	%ebp, %edx
	je	.L1697
.L1698:
	movl	4(%rax), %edx
	addq	$4, %rax
	testl	%edx, %edx
	jns	.L1699
.L1696:
	movq	%r14, %rdi
	movl	%ebp, %esi
	call	list_append
	movq	%rax, %r14
.L1697:
	cmpq	$restriction_vertex, 104(%rbx)
	je	.L1899
	.p2align 4,,10
	.p2align 3
.L1675:
	movl	4(%r12), %ebp
	addq	$4, %r12
	testl	%ebp, %ebp
	jns	.L1704
.L1909:
	cmpq	$0, 64(%rsp)
	movq	%r13, (%rsp)
	movq	%r15, 40(%rsp)
	je	.L1705
	movq	grid(%rip), %rax
	cmpb	$0, 128(%rax)
	jne	.L1900
.L1706:
	movl	72(%rax), %edx
	testl	%edx, %edx
	jle	.L1705
	movq	64(%rax), %rcx
	movq	24(%rax), %rsi
	leal	-1(%rdx), %eax
	movq	%r14, 80(%rsp)
	salq	$4, %rax
	movsd	.LC2(%rip), %xmm1
	leaq	16(%rcx), %r15
	movq	%rsi, 16(%rsp)
	addq	%r15, %rax
	movq	%rax, 48(%rsp)
	jmp	.L1713
	.p2align 4,,10
	.p2align 3
.L1721:
	addl	$2, %eax
	movl	%eax, %edx
	shrl	$31, %edx
	addl	%edx, %eax
	andl	$1, %eax
	subl	%edx, %eax
	cmpl	$1, %eax
	je	.L1901
.L1716:
	movq	%r15, %rcx
	cmpq	%r15, 48(%rsp)
	je	.L1882
.L1902:
	addq	$16, %r15
.L1713:
	movl	(%rcx), %eax
	movl	4(%rcx), %edx
	movslq	8(%rcx), %rcx
	leaq	0(,%rcx,8), %rsi
	movq	%rsi, 24(%rsp)
	movq	16(%rsp), %rsi
	movq	(%rsi,%rcx,8), %rcx
	movslq	%edx, %rsi
	leaq	0(,%rsi,8), %r10
	movq	(%rcx), %rcx
	movq	16(%rcx), %rdi
	movslq	%eax, %rcx
	leaq	0(,%rcx,8), %r12
	movq	(%rdi,%rcx,8), %r9
	movq	(%r9,%rsi,8), %rcx
	movzwl	(%rcx), %r14d
	andw	$2, %r14w
	jne	.L1707
	cmpw	$0, 2(%rcx)
	je	.L1707
	movl	4(%rcx), %r11d
	testl	%r11d, %r11d
	jns	.L1708
	.p2align 4,,10
	.p2align 3
.L1707:
	movq	-8(%rdi,%r12), %rbx
	movq	(%rbx,%rsi,8), %r11
	movzwl	(%r11), %esi
	movl	%esi, %r8d
	andw	$2, %r8w
	movw	%r8w, 32(%rsp)
	jne	.L1709
	cmpw	$0, 2(%r11)
	je	.L1709
	movl	4(%r11), %r8d
	testl	%r8d, %r8d
	jns	.L1708
	.p2align 4,,10
	.p2align 3
.L1709:
	movq	-8(%r9,%r10), %rbp
	movzwl	0(%rbp), %r8d
	movl	%r8d, %r13d
	andw	$2, %r13w
	movw	%r13w, 56(%rsp)
	jne	.L1710
	cmpw	$0, 2(%rbp)
	je	.L1710
	movl	4(%rbp), %r13d
	testl	%r13d, %r13d
	jns	.L1708
	.p2align 4,,10
	.p2align 3
.L1710:
	movq	-8(%rbx,%r10), %rbx
	testb	$2, (%rbx)
	jne	.L1711
	cmpw	$0, 2(%rbx)
	je	.L1711
	movl	4(%rbx), %ebx
	testl	%ebx, %ebx
	jns	.L1708
	.p2align 4,,10
	.p2align 3
.L1711:
	addl	$2, %edx
	movl	%edx, %ebx
	shrl	$31, %ebx
	addl	%ebx, %edx
	andl	$1, %edx
	subl	%ebx, %edx
	cmpl	$1, %edx
	jne	.L1721
	testw	%r14w, %r14w
	jne	.L1719
	cmpw	$0, 2(%rcx)
	jne	.L1719
	movl	4(%rcx), %r13d
	testl	%r13d, %r13d
	jns	.L1720
	.p2align 4,,10
	.p2align 3
.L1719:
	cmpw	$0, 32(%rsp)
	jne	.L1721
	cmpw	$0, 2(%r11)
	jne	.L1721
	movl	4(%r11), %ebx
	testl	%ebx, %ebx
	js	.L1721
.L1720:
	movq	64(%rsp), %rbx
	movslq	(%rbx), %rdx
	testl	%edx, %edx
	js	.L1721
	leaq	8(%r9,%r10), %r13
	andl	$8, %r8d
	movq	%rbx, %r9
	.p2align 4,,10
	.p2align 3
.L1723:
	addq	$1, %rdx
	movapd	%xmm1, %xmm0
	testw	%r8w, %r8w
	je	.L1722
	movq	0(%r13), %rbx
	testb	$8, (%rbx)
	je	.L1722
	movsd	0(%rbp,%rdx,8), %xmm0
	addsd	(%rbx,%rdx,8), %xmm0
	mulsd	.LC5(%rip), %xmm0
.L1722:
	addq	$4, %r9
	movsd	%xmm0, (%rcx,%rdx,8)
	movslq	(%r9), %rdx
	testl	%edx, %edx
	jns	.L1723
	jmp	.L1721
	.p2align 4,,10
	.p2align 3
.L1708:
	movq	64(%rsp), %rsi
	movslq	(%rsi), %rsi
	testl	%esi, %esi
	js	.L1716
	movq	16(%rsp), %rdi
	movq	24(%rsp), %rbx
	movq	8(%rdi,%rbx), %rdi
	movq	(%rdi), %r8
	leal	-2(%rax,%rax), %edi
	leal	-2(%rdx,%rdx), %eax
	movslq	%edi, %rdi
	cltq
	movq	16(%r8), %r8
	movq	(%r8,%rdi,8), %rdx
	movq	(%rdx,%rax,8), %rdi
	movq	64(%rsp), %rax
	movzwl	(%rdi), %edx
	andl	$8, %edx
	.p2align 4,,10
	.p2align 3
.L1715:
	addq	$1, %rsi
	movapd	%xmm1, %xmm0
	testw	%dx, %dx
	je	.L1714
	movsd	(%rdi,%rsi,8), %xmm0
.L1714:
	addq	$4, %rax
	movsd	%xmm0, (%rcx,%rsi,8)
	movslq	(%rax), %rsi
	testl	%esi, %esi
	jns	.L1715
	movq	%r15, %rcx
	cmpq	%r15, 48(%rsp)
	jne	.L1902
.L1882:
	movq	80(%rsp), %r14
.L1705:
	movq	64(%rsp), %rdi
	call	free
	movq	(%rsp), %rax
	orq	40(%rsp), %rax
	je	.L1903
	movq	boundaries(%rip), %rbx
	movl	76(%rsp), %ebp
	testq	%rbx, %rbx
	je	.L1733
.L1728:
	movq	(%rbx), %rdi
	addq	$8, %rbx
	testq	%rdi, %rdi
	je	.L1733
.L1732:
	movq	16(%rdi), %rax
	testq	%rax, %rax
	je	.L1728
	addq	$8, %rbx
	movl	%ebp, %edx
	movq	%r14, %rsi
	call	*%rax
	movq	-8(%rbx), %rdi
	testq	%rdi, %rdi
	jne	.L1732
.L1733:
	movl	76(%rsp), %eax
	leal	-1(%rax), %ebp
	movslq	%ebp, %rax
	salq	$3, %rax
	movq	%rax, 24(%rsp)
	testl	%ebp, %ebp
	js	.L1730
	.p2align 4,,10
	.p2align 3
.L1749:
	movq	grid(%rip), %rax
	cmpl	%ebp, 16(%rax)
	jge	.L1904
.L1735:
	movq	boundaries(%rip), %rbx
	testq	%rbx, %rbx
	je	.L1752
.L1748:
	movq	(%rbx), %rdi
	addq	$8, %rbx
	testq	%rdi, %rdi
	je	.L1752
.L1751:
	movq	16(%rdi), %rax
	testq	%rax, %rax
	je	.L1748
	addq	$8, %rbx
	movl	%ebp, %edx
	movq	%r14, %rsi
	call	*%rax
	movq	-8(%rbx), %rdi
	testq	%rdi, %rdi
	jne	.L1751
.L1752:
	subl	$1, %ebp
	subq	$8, 24(%rsp)
	cmpl	$-1, %ebp
	jne	.L1749
.L1730:
	movq	(%rsp), %rdi
	call	free
	movq	40(%rsp), %rdi
	call	free
	movq	%r14, %rdi
	call	free
	movq	8(%rsp), %rax
	movl	(%rax), %esi
.L1734:
	testl	%esi, %esi
	js	.L1666
	movq	8(%rsp), %rbx
	xorl	%ebp, %ebp
	xorl	%r12d, %r12d
	.p2align 4,,10
	.p2align 3
.L1763:
	cmpl	$65535, %esi
	jg	.L1753
	movslq	%esi, %rax
	leaq	(%rax,%rax,4), %rdx
	leaq	(%rax,%rdx,2), %rax
	salq	$4, %rax
	addq	_attribute(%rip), %rax
	cmpq	$no_restriction, 112(%rax)
	je	.L1753
	movl	56(%rax), %edx
	testl	%edx, %edx
	je	.L1754
	movq	48(%rax), %r8
	movl	48(%rax), %esi
	movl	52(%rax), %edi
	testq	%rbp, %rbp
	je	.L1755
	movl	0(%rbp), %edx
	movl	4(%rbp), %ecx
	testl	%edx, %edx
	js	.L1755
	movq	%rbp, %rax
	jmp	.L1758
	.p2align 4,,10
	.p2align 3
.L1756:
	movl	8(%rax), %edx
	addq	$8, %rax
	movl	4(%rax), %ecx
	testl	%edx, %edx
	js	.L1755
.L1758:
	cmpl	%edx, %esi
	jne	.L1756
	cmpl	%ecx, %edi
	jne	.L1756
	.p2align 4,,10
	.p2align 3
.L1753:
	movl	4(%rbx), %esi
	addq	$4, %rbx
	testl	%esi, %esi
	jns	.L1763
	movq	%r12, %rax
	movq	%r12, 24(%rsp)
	orq	%rbp, %rax
	movq	%rbp, 32(%rsp)
	je	.L1666
	movq	boundaries(%rip), %rbx
	movq	8(%rsp), %rbp
	testq	%rbx, %rbx
	je	.L1765
.L1764:
	movq	(%rbx), %rdi
	addq	$8, %rbx
	testq	%rdi, %rdi
	je	.L1765
.L1768:
	movq	8(%rdi), %rax
	testq	%rax, %rax
	je	.L1764
	addq	$8, %rbx
	xorl	%edx, %edx
	movq	%rbp, %rsi
	call	*%rax
	movq	-8(%rbx), %rdi
	testq	%rdi, %rdi
	jne	.L1768
.L1765:
	movslq	76(%rsp), %rsi
	movq	88(%rsp), %rbx
	movq	$0, 16(%rsp)
	movq	%rsi, 56(%rsp)
	testl	%esi, %esi
	jle	.L1782
	.p2align 4,,10
	.p2align 3
.L1781:
	movq	16(%rsp), %rax
	movl	%eax, 48(%rsp)
	movq	%rax, %rcx
	movl	%eax, %r14d
	movq	grid(%rip), %rax
	cmpl	%ecx, 16(%rax)
	jge	.L1769
.L1773:
	movl	48(%rsp), %ebp
	movq	boundaries(%rip), %r12
	addl	$1, %ebp
	testq	%r12, %r12
	je	.L1771
.L1770:
	movq	(%r12), %rdi
	addq	$8, %r12
	testq	%rdi, %rdi
	je	.L1771
.L1784:
	movq	8(%rdi), %rax
	testq	%rax, %rax
	je	.L1770
	addq	$8, %r12
	movq	8(%rsp), %rsi
	movl	%ebp, %edx
	call	*%rax
	movq	-8(%r12), %rdi
	testq	%rdi, %rdi
	jne	.L1784
.L1771:
	addq	$1, 16(%rsp)
	movq	16(%rsp), %rax
	cmpq	%rax, 56(%rsp)
	jne	.L1781
.L1782:
	movq	24(%rsp), %rdi
	call	free
	movq	32(%rsp), %rdi
	addq	$136, %rsp
	.cfi_remember_state
	.cfi_def_cfa_offset 56
	popq	%rbx
	.cfi_def_cfa_offset 48
	popq	%rbp
	.cfi_def_cfa_offset 40
	popq	%r12
	.cfi_def_cfa_offset 32
	popq	%r13
	.cfi_def_cfa_offset 24
	popq	%r14
	.cfi_def_cfa_offset 16
	popq	%r15
	.cfi_def_cfa_offset 8
	jmp	free
	.p2align 4,,10
	.p2align 3
.L1901:
	.cfi_restore_state
	testw	%r14w, %r14w
	jne	.L1724
	cmpw	$0, 2(%rcx)
	jne	.L1724
	movl	4(%rcx), %r9d
	testl	%r9d, %r9d
	jns	.L1725
	.p2align 4,,10
	.p2align 3
.L1724:
	cmpw	$0, 56(%rsp)
	jne	.L1716
	cmpw	$0, 2(%rbp)
	jne	.L1716
	movl	4(%rbp), %r8d
	testl	%r8d, %r8d
	js	.L1716
.L1725:
	movq	64(%rsp), %rdx
	movslq	(%rdx), %rax
	testl	%eax, %eax
	js	.L1716
	movsd	.LC5(%rip), %xmm2
	leaq	8(%rdi,%r12), %rdi
	andl	$8, %esi
	.p2align 4,,10
	.p2align 3
.L1727:
	addq	$1, %rax
	movapd	%xmm1, %xmm0
	testw	%si, %si
	je	.L1726
	movq	(%rdi), %r8
	movq	.LC2(%rip), %rbx
	movq	(%r8,%r10), %r8
	movq	%rbx, %xmm0
	testb	$8, (%r8)
	je	.L1726
	movsd	(%r11,%rax,8), %xmm0
	addsd	(%r8,%rax,8), %xmm0
	mulsd	%xmm2, %xmm0
.L1726:
	addq	$4, %rdx
	movsd	%xmm0, (%rcx,%rax,8)
	movslq	(%rdx), %rax
	testl	%eax, %eax
	jns	.L1727
	jmp	.L1716
	.p2align 4,,10
	.p2align 3
.L1769:
	cmpb	$0, 128(%rax)
	jne	.L1905
.L1772:
	movq	16(%rsp), %rdx
	salq	$4, %rdx
	addq	104(%rax), %rdx
	movl	8(%rdx), %eax
	movq	(%rdx), %r13
	testl	%eax, %eax
	jle	.L1773
	subl	$1, %eax
	movq	%r13, (%rsp)
	leaq	8(%r13,%rax,8), %rax
	movq	%rax, 40(%rsp)
	.p2align 4,,10
	.p2align 3
.L1780:
	movq	(%rsp), %rax
	cmpq	$0, 24(%rsp)
	movl	(%rax), %ebp
	movl	4(%rax), %r12d
	jne	.L1774
.L1778:
	movq	32(%rsp), %r15
	movl	(%r15), %edx
	movl	4(%r15), %r13d
	testl	%edx, %edx
	js	.L1776
	.p2align 4,,10
	.p2align 3
.L1775:
	movslq	%edx, %rax
	movl	%edx, %edx
	movl	%ebp, 116(%rsp)
	movl	%r14d, %esi
	leaq	(%rax,%rax,4), %rcx
	movl	%r12d, 120(%rsp)
	movq	116(%rsp), %rdi
	addq	$8, %r15
	leaq	(%rax,%rcx,2), %rax
	movl	%r14d, 124(%rsp)
	movabsq	$-4294967296, %rcx
	andq	%rcx, %rbx
	salq	$4, %rax
	addq	_attribute(%rip), %rax
	orq	%rdx, %rbx
	movl	%ebx, %edx
	movl	%ebx, %ebx
	call	*96(%rax)
	movslq	%r13d, %rax
	salq	$32, %r13
	movq	116(%rsp), %rdi
	leaq	(%rax,%rax,4), %rdx
	orq	%r13, %rbx
	shrq	$32, %r13
	movl	124(%rsp), %esi
	leaq	(%rax,%rdx,2), %rax
	movq	%r13, %rdx
	salq	$4, %rax
	addq	_attribute(%rip), %rax
	call	*96(%rax)
	movl	(%r15), %edx
	movl	4(%r15), %r13d
	testl	%edx, %edx
	jns	.L1775
.L1776:
	addq	$8, (%rsp)
	movq	(%rsp), %rax
	cmpq	40(%rsp), %rax
	jne	.L1780
	jmp	.L1773
